(dp0
S'5988'
p1
I5986
sS'5989'
p2
I5987
sS'5982'
p3
I5980
sS'5983'
p4
I5981
sS'5980'
p5
I5978
sS'5981'
p6
I5979
sS'5986'
p7
I5984
sS'5987'
p8
I5985
sS'5984'
p9
I5982
sS'5985'
p10
I5983
sS'6294'
p11
I6292
sS'270'
p12
I268
sS'271'
p13
I269
sS'272'
p14
I270
sS'273'
p15
I271
sS'274'
p16
I272
sS'275'
p17
I273
sS'276'
p18
I274
sS'277'
p19
I275
sS'278'
p20
I276
sS'279'
p21
I277
sS'2143'
p22
I2141
sS'2142'
p23
I2140
sS'3519'
p24
I3517
sS'3518'
p25
I3516
sS'3513'
p26
I3511
sS'3512'
p27
I3510
sS'3511'
p28
I3509
sS'3510'
p29
I3508
sS'3517'
p30
I3515
sS'3516'
p31
I3514
sS'3515'
p32
I3513
sS'3514'
p33
I3512
sS'2688'
p34
I2686
sS'2689'
p35
I2687
sS'2684'
p36
I2682
sS'2685'
p37
I2683
sS'2686'
p38
I2684
sS'2687'
p39
I2685
sS'2680'
p40
I2678
sS'2681'
p41
I2679
sS'2682'
p42
I2680
sS'2683'
p43
I2681
sS'99'
p44
I98
sS'98'
p45
I97
sS'91'
p46
I90
sS'90'
p47
I89
sS'93'
p48
I92
sS'92'
p49
I91
sS'95'
p50
I94
sS'94'
p51
I93
sS'97'
p52
I96
sS'96'
p53
I95
sS'1177'
p54
I1175
sS'1176'
p55
I1174
sS'1175'
p56
I1173
sS'1174'
p57
I1172
sS'1173'
p58
I1171
sS'1172'
p59
I1170
sS'1171'
p60
I1169
sS'1170'
p61
I1168
sS'1179'
p62
I1177
sS'1178'
p63
I1176
sS'876'
p64
I874
sS'877'
p65
I875
sS'3432'
p66
I3430
sS'623'
p67
I621
sS'875'
p68
I873
sS'622'
p69
I620
sS'872'
p70
I870
sS'1225'
p71
I1223
sS'3435'
p72
I3433
sS'620'
p73
I618
sS'870'
p74
I868
sS'627'
p75
I625
sS'871'
p76
I869
sS'626'
p77
I624
sS'4592'
p78
I4590
sS'625'
p79
I623
sS'2036'
p80
I2034
sS'624'
p81
I622
sS'4590'
p82
I4588
sS'4591'
p83
I4589
sS'2745'
p84
I2743
sS'4849'
p85
I4847
sS'4594'
p86
I4592
sS'4595'
p87
I4593
sS'2749'
p88
I2747
sS'4845'
p89
I4843
sS'4598'
p90
I4596
sS'4599'
p91
I4597
sS'4734'
p92
I4732
sS'4735'
p93
I4733
sS'2039'
p94
I2037
sS'4843'
p95
I4841
sS'4738'
p96
I4736
sS'4739'
p97
I4737
sS'393'
p98
I391
sS'392'
p99
I390
sS'391'
p100
I389
sS'390'
p101
I388
sS'397'
p102
I395
sS'396'
p103
I394
sS'395'
p104
I393
sS'394'
p105
I392
sS'399'
p106
I397
sS'398'
p107
I396
sS'2309'
p108
I2307
sS'2308'
p109
I2306
sS'4729'
p110
I4727
sS'4728'
p111
I4726
sS'2301'
p112
I2299
sS'2300'
p113
I2298
sS'2303'
p114
I2301
sS'2302'
p115
I2300
sS'2305'
p116
I2303
sS'2304'
p117
I2302
sS'2307'
p118
I2305
sS'2306'
p119
I2304
sS'5847'
p120
I5845
sS'5846'
p121
I5844
sS'5845'
p122
I5843
sS'5844'
p123
I5842
sS'5843'
p124
I5841
sS'5842'
p125
I5840
sS'5841'
p126
I5839
sS'5840'
p127
I5838
sS'5849'
p128
I5847
sS'5848'
p129
I5846
sS'3748'
p130
I3746
sS'3749'
p131
I3747
sS'3746'
p132
I3744
sS'3747'
p133
I3745
sS'3744'
p134
I3742
sS'3745'
p135
I3743
sS'3742'
p136
I3740
sS'3743'
p137
I3741
sS'3740'
p138
I3738
sS'3741'
p139
I3739
sS'4620'
p140
I4618
sS'4621'
p141
I4619
sS'4622'
p142
I4620
sS'4623'
p143
I4621
sS'4624'
p144
I4622
sS'4625'
p145
I4623
sS'4626'
p146
I4624
sS'4627'
p147
I4625
sS'4628'
p148
I4626
sS'4629'
p149
I4627
sS'179'
p150
I178
sS'178'
p151
I177
sS'177'
p152
I176
sS'176'
p153
I175
sS'175'
p154
I174
sS'174'
p155
I173
sS'173'
p156
I172
sS'172'
p157
I171
sS'171'
p158
I170
sS'170'
p159
I169
sS'6217'
p160
I6215
sS'6216'
p161
I6214
sS'6215'
p162
I6213
sS'6214'
p163
I6212
sS'6213'
p164
I6211
sS'6212'
p165
I6210
sS'6211'
p166
I6209
sS'6210'
p167
I6208
sS'6219'
p168
I6217
sS'6218'
p169
I6216
sS'1768'
p170
I1766
sS'1769'
p171
I1767
sS'1762'
p172
I1760
sS'1763'
p173
I1761
sS'1760'
p174
I1758
sS'1761'
p175
I1759
sS'1766'
p176
I1764
sS'1767'
p177
I1765
sS'1764'
p178
I1762
sS'1765'
p179
I1763
sS'692'
p180
I690
sS'693'
p181
I691
sS'690'
p182
I688
sS'691'
p183
I689
sS'696'
p184
I694
sS'697'
p185
I695
sS'694'
p186
I692
sS'695'
p187
I693
sS'698'
p188
I696
sS'699'
p189
I697
sS'1548'
p190
I1546
sS'1549'
p191
I1547
sS'5618'
p192
I5616
sS'5619'
p193
I5617
sS'5612'
p194
I5610
sS'5613'
p195
I5611
sS'5610'
p196
I5608
sS'5611'
p197
I5609
sS'5616'
p198
I5614
sS'5617'
p199
I5615
sS'5614'
p200
I5612
sS'5615'
p201
I5613
sS'</s>'
p202
I0
sS'3580'
p203
I3578
sS'258'
p204
I256
sS'259'
p205
I257
sS'252'
p206
I250
sS'253'
p207
I251
sS'250'
p208
I248
sS'251'
p209
I249
sS'256'
p210
I254
sS'257'
p211
I255
sS'254'
p212
I252
sS'255'
p213
I253
sS'4665'
p214
I4663
sS'3689'
p215
I3687
sS'3688'
p216
I3686
sS'3683'
p217
I3681
sS'3682'
p218
I3680
sS'3681'
p219
I3679
sS'3680'
p220
I3678
sS'3687'
p221
I3685
sS'3686'
p222
I3684
sS'3685'
p223
I3683
sS'3684'
p224
I3682
sS'2518'
p225
I2516
sS'2519'
p226
I2517
sS'2514'
p227
I2512
sS'2515'
p228
I2513
sS'2516'
p229
I2514
sS'2517'
p230
I2515
sS'2510'
p231
I2508
sS'2511'
p232
I2509
sS'2512'
p233
I2510
sS'2513'
p234
I2511
sS'3531'
p235
I3529
sS'3530'
p236
I3528
sS'3533'
p237
I3531
sS'3532'
p238
I3530
sS'3535'
p239
I3533
sS'3534'
p240
I3532
sS'3537'
p241
I3535
sS'3536'
p242
I3534
sS'5054'
p243
I5052
sS'3538'
p244
I3536
sS'5056'
p245
I5054
sS'5057'
p246
I5055
sS'5050'
p247
I5048
sS'5051'
p248
I5049
sS'5052'
p249
I5050
sS'5053'
p250
I5051
sS'1159'
p251
I1157
sS'1158'
p252
I1156
sS'1155'
p253
I1153
sS'1154'
p254
I1152
sS'1157'
p255
I1155
sS'1156'
p256
I1154
sS'1151'
p257
I1149
sS'1150'
p258
I1148
sS'1153'
p259
I1151
sS'1152'
p260
I1150
sS'4299'
p261
I4297
sS'4298'
p262
I4296
sS'4295'
p263
I4293
sS'4294'
p264
I4292
sS'4297'
p265
I4295
sS'4296'
p266
I4294
sS'4291'
p267
I4289
sS'4290'
p268
I4288
sS'4293'
p269
I4291
sS'4292'
p270
I4290
sS'4749'
p271
I4747
sS'4748'
p272
I4746
sS'1324'
p273
I1322
sS'4743'
p274
I4741
sS'4742'
p275
I4740
sS'4741'
p276
I4739
sS'4740'
p277
I4738
sS'4747'
p278
I4745
sS'4746'
p279
I4744
sS'4745'
p280
I4743
sS'4744'
p281
I4742
sS'5869'
p282
I5867
sS'5868'
p283
I5866
sS'5865'
p284
I5863
sS'5864'
p285
I5862
sS'5867'
p286
I5865
sS'5866'
p287
I5864
sS'5861'
p288
I5859
sS'5860'
p289
I5858
sS'5863'
p290
I5861
sS'5862'
p291
I5860
sS'2183'
p292
I2181
sS'2182'
p293
I2180
sS'2181'
p294
I2179
sS'2180'
p295
I2178
sS'2187'
p296
I2185
sS'2186'
p297
I2184
sS'2185'
p298
I2183
sS'2184'
p299
I2182
sS'4606'
p300
I4604
sS'4607'
p301
I4605
sS'2189'
p302
I2187
sS'2188'
p303
I2186
sS'4602'
p304
I4600
sS'4603'
p305
I4601
sS'4600'
p306
I4598
sS'4601'
p307
I4599
sS'151'
p308
I150
sS'150'
p309
I149
sS'153'
p310
I152
sS'152'
p311
I151
sS'155'
p312
I154
sS'154'
p313
I153
sS'157'
p314
I156
sS'156'
p315
I155
sS'159'
p316
I158
sS'158'
p317
I157
sS'6187'
p318
I6185
sS'6186'
p319
I6184
sS'6185'
p320
I6183
sS'6184'
p321
I6182
sS'6183'
p322
I6181
sS'6182'
p323
I6180
sS'6181'
p324
I6179
sS'6180'
p325
I6178
sS'6189'
p326
I6187
sS'6188'
p327
I6186
sS'2727'
p328
I2725
sS'2726'
p329
I2724
sS'2725'
p330
I2723
sS'2724'
p331
I2722
sS'2723'
p332
I2721
sS'2722'
p333
I2720
sS'2721'
p334
I2719
sS'2720'
p335
I2718
sS'2729'
p336
I2727
sS'2728'
p337
I2726
sS'6239'
p338
I6237
sS'6238'
p339
I6236
sS'6235'
p340
I6233
sS'6234'
p341
I6232
sS'6237'
p342
I6235
sS'6236'
p343
I6234
sS'6231'
p344
I6229
sS'6230'
p345
I6228
sS'6233'
p346
I6231
sS'6232'
p347
I6230
sS'818'
p348
I816
sS'819'
p349
I817
sS'810'
p350
I808
sS'811'
p351
I809
sS'812'
p352
I810
sS'813'
p353
I811
sS'814'
p354
I812
sS'815'
p355
I813
sS'816'
p356
I814
sS'817'
p357
I815
sS'1700'
p358
I1698
sS'1701'
p359
I1699
sS'5265'
p360
I5263
sS'5264'
p361
I5262
sS'1704'
p362
I1702
sS'1705'
p363
I1703
sS'1706'
p364
I1704
sS'1707'
p365
I1705
sS'1708'
p366
I1706
sS'1709'
p367
I1707
sS'2097'
p368
I2095
sS'5269'
p369
I5267
sS'5268'
p370
I5266
sS'2096'
p371
I2094
sS'4574'
p372
I4572
sS'4575'
p373
I4573
sS'2093'
p374
I2091
sS'4577'
p375
I4575
sS'3959'
p376
I3957
sS'3029'
p377
I3027
sS'3028'
p378
I3026
sS'3027'
p379
I3025
sS'3026'
p380
I3024
sS'3025'
p381
I3023
sS'3024'
p382
I3022
sS'3023'
p383
I3021
sS'3022'
p384
I3020
sS'3021'
p385
I3019
sS'3020'
p386
I3018
sS'4198'
p387
I4196
sS'4199'
p388
I4197
sS'4196'
p389
I4194
sS'4197'
p390
I4195
sS'4194'
p391
I4192
sS'4195'
p392
I4193
sS'4192'
p393
I4190
sS'4193'
p394
I4191
sS'4190'
p395
I4188
sS'4191'
p396
I4189
sS'5670'
p397
I5668
sS'5671'
p398
I5669
sS'5672'
p399
I5670
sS'5673'
p400
I5671
sS'5674'
p401
I5672
sS'5675'
p402
I5673
sS'5676'
p403
I5674
sS'5677'
p404
I5675
sS'5678'
p405
I5676
sS'5679'
p406
I5677
sS'238'
p407
I236
sS'239'
p408
I237
sS'234'
p409
I232
sS'235'
p410
I233
sS'236'
p411
I234
sS'237'
p412
I235
sS'230'
p413
I228
sS'231'
p414
I229
sS'232'
p415
I230
sS'233'
p416
I231
sS'4681'
p417
I4679
sS'2538'
p418
I2536
sS'2539'
p419
I2537
sS'2532'
p420
I2530
sS'2533'
p421
I2531
sS'2530'
p422
I2528
sS'2531'
p423
I2529
sS'2536'
p424
I2534
sS'2537'
p425
I2535
sS'2534'
p426
I2532
sS'2535'
p427
I2533
sS'5078'
p428
I5076
sS'5079'
p429
I5077
sS'5072'
p430
I5070
sS'5073'
p431
I5071
sS'5070'
p432
I5068
sS'5071'
p433
I5069
sS'5076'
p434
I5074
sS'5077'
p435
I5075
sS'5074'
p436
I5072
sS'5075'
p437
I5073
sS'939'
p438
I937
sS'938'
p439
I936
sS'933'
p440
I931
sS'932'
p441
I930
sS'931'
p442
I929
sS'930'
p443
I928
sS'937'
p444
I935
sS'936'
p445
I934
sS'935'
p446
I933
sS'934'
p447
I932
sS'5380'
p448
I5378
sS'5381'
p449
I5379
sS'5382'
p450
I5380
sS'5383'
p451
I5381
sS'5384'
p452
I5382
sS'5385'
p453
I5383
sS'5386'
p454
I5384
sS'5387'
p455
I5385
sS'5388'
p456
I5386
sS'5389'
p457
I5387
sS'797'
p458
I795
sS'796'
p459
I794
sS'795'
p460
I793
sS'794'
p461
I792
sS'793'
p462
I791
sS'792'
p463
I790
sS'791'
p464
I789
sS'790'
p465
I788
sS'2145'
p466
I2143
sS'799'
p467
I797
sS'798'
p468
I796
sS'2144'
p469
I2142
sS'2415'
p470
I2413
sS'2414'
p471
I2412
sS'1139'
p472
I1137
sS'1138'
p473
I1136
sS'2141'
p474
I2139
sS'1133'
p475
I1131
sS'1132'
p476
I1130
sS'1131'
p477
I1129
sS'1130'
p478
I1128
sS'1137'
p479
I1135
sS'1136'
p480
I1134
sS'1135'
p481
I1133
sS'1134'
p482
I1132
sS'2419'
p483
I2417
sS'2418'
p484
I2416
sS'2149'
p485
I2147
sS'4973'
p486
I4971
sS'2882'
p487
I2880
sS'2883'
p488
I2881
sS'2880'
p489
I2878
sS'2881'
p490
I2879
sS'2886'
p491
I2884
sS'2887'
p492
I2885
sS'2884'
p493
I2882
sS'2885'
p494
I2883
sS'1072'
p495
I1070
sS'2888'
p496
I2886
sS'2889'
p497
I2887
sS'2'
p498
I1
sS'3276'
p499
I3274
sS'3277'
p500
I3275
sS'1922'
p501
I1920
sS'1923'
p502
I1921
sS'1924'
p503
I1922
sS'3273'
p504
I3271
sS'1926'
p505
I1924
sS'1927'
p506
I1925
sS'4761'
p507
I4759
sS'4760'
p508
I4758
sS'4763'
p509
I4761
sS'4762'
p510
I4760
sS'4765'
p511
I4763
sS'4764'
p512
I4762
sS'4767'
p513
I4765
sS'4766'
p514
I4764
sS'4769'
p515
I4767
sS'4768'
p516
I4766
sS'5809'
p517
I5807
sS'5808'
p518
I5806
sS'5803'
p519
I5801
sS'5802'
p520
I5800
sS'5801'
p521
I5799
sS'5800'
p522
I5798
sS'5807'
p523
I5805
sS'5806'
p524
I5804
sS'5805'
p525
I5803
sS'5804'
p526
I5802
sS'1573'
p527
I1571
sS'1572'
p528
I1570
sS'1571'
p529
I1569
sS'1570'
p530
I1568
sS'1577'
p531
I1575
sS'1576'
p532
I1574
sS'1575'
p533
I1573
sS'1574'
p534
I1572
sS'4888'
p535
I4886
sS'4889'
p536
I4887
sS'2709'
p537
I2707
sS'2708'
p538
I2706
sS'4880'
p539
I4878
sS'4881'
p540
I4879
sS'4882'
p541
I4880
sS'2706'
p542
I2704
sS'2701'
p543
I2699
sS'2700'
p544
I2698
sS'2703'
p545
I2701
sS'4887'
p546
I4885
sS'6259'
p547
I6257
sS'6258'
p548
I6256
sS'6253'
p549
I6251
sS'6252'
p550
I6250
sS'6251'
p551
I6249
sS'6250'
p552
I6248
sS'6257'
p553
I6255
sS'6256'
p554
I6254
sS'6255'
p555
I6253
sS'6254'
p556
I6252
sS'2411'
p557
I2409
sS'475'
p558
I473
sS'3474'
p559
I3472
sS'3475'
p560
I3473
sS'3476'
p561
I3474
sS'3477'
p562
I3475
sS'3470'
p563
I3468
sS'3471'
p564
I3469
sS'3472'
p565
I3470
sS'3473'
p566
I3471
sS'838'
p567
I836
sS'839'
p568
I837
sS'3478'
p569
I3476
sS'3479'
p570
I3477
sS'5249'
p571
I5247
sS'5248'
p572
I5246
sS'1728'
p573
I1726
sS'1729'
p574
I1727
sS'1726'
p575
I1724
sS'5244'
p576
I5242
sS'5247'
p577
I5245
sS'5246'
p578
I5244
sS'1722'
p579
I1720
sS'1723'
p580
I1721
sS'1720'
p581
I1718
sS'1721'
p582
I1719
sS'5626'
p583
I5624
sS'3005'
p584
I3003
sS'3004'
p585
I3002
sS'3007'
p586
I3005
sS'3006'
p587
I3004
sS'3001'
p588
I2999
sS'3000'
p589
I2998
sS'3003'
p590
I3001
sS'3002'
p591
I3000
sS'3009'
p592
I3007
sS'3008'
p593
I3006
sS'1588'
p594
I1586
sS'1589'
p595
I1587
sS'1582'
p596
I1580
sS'1583'
p597
I1581
sS'1580'
p598
I1578
sS'1581'
p599
I1579
sS'1586'
p600
I1584
sS'1587'
p601
I1585
sS'1584'
p602
I1582
sS'1585'
p603
I1583
sS'5481'
p604
I5479
sS'5480'
p605
I5478
sS'5658'
p606
I5656
sS'5659'
p607
I5657
sS'5656'
p608
I5654
sS'5657'
p609
I5655
sS'5654'
p610
I5652
sS'2416'
p611
I2414
sS'5652'
p612
I5650
sS'5653'
p613
I5651
sS'5650'
p614
I5648
sS'5651'
p615
I5649
sS'3917'
p616
I3915
sS'3916'
p617
I3914
sS'3915'
p618
I3913
sS'3914'
p619
I3912
sS'3913'
p620
I3911
sS'3912'
p621
I3910
sS'3911'
p622
I3909
sS'3910'
p623
I3908
sS'3919'
p624
I3917
sS'3918'
p625
I3916
sS'3287'
p626
I3285
sS'216'
p627
I214
sS'217'
p628
I215
sS'214'
p629
I212
sS'215'
p630
I213
sS'212'
p631
I210
sS'213'
p632
I211
sS'210'
p633
I208
sS'211'
p634
I209
sS'218'
p635
I216
sS'219'
p636
I217
sS'6088'
p637
I6086
sS'6089'
p638
I6087
sS'6086'
p639
I6084
sS'6087'
p640
I6085
sS'6084'
p641
I6082
sS'6085'
p642
I6083
sS'6082'
p643
I6080
sS'6083'
p644
I6081
sS'6080'
p645
I6078
sS'6081'
p646
I6079
sS'3285'
p647
I3283
sS'3649'
p648
I3647
sS'3648'
p649
I3646
sS'3647'
p650
I3645
sS'3646'
p651
I3644
sS'3645'
p652
I3643
sS'3644'
p653
I3642
sS'3643'
p654
I3641
sS'3642'
p655
I3640
sS'3641'
p656
I3639
sS'3640'
p657
I3638
sS'2550'
p658
I2548
sS'2551'
p659
I2549
sS'2552'
p660
I2550
sS'2553'
p661
I2551
sS'2554'
p662
I2552
sS'2555'
p663
I2553
sS'2556'
p664
I2554
sS'2557'
p665
I2555
sS'2558'
p666
I2556
sS'2559'
p667
I2557
sS'5010'
p668
I5008
sS'5011'
p669
I5009
sS'5012'
p670
I5010
sS'5013'
p671
I5011
sS'5014'
p672
I5012
sS'5015'
p673
I5013
sS'5016'
p674
I5014
sS'5017'
p675
I5015
sS'5018'
p676
I5016
sS'5019'
p677
I5017
sS'4419'
p678
I4417
sS'4418'
p679
I4416
sS'4417'
p680
I4415
sS'4416'
p681
I4414
sS'4415'
p682
I4413
sS'4414'
p683
I4412
sS'4413'
p684
I4411
sS'4412'
p685
I4410
sS'4411'
p686
I4409
sS'4410'
p687
I4408
sS'919'
p688
I917
sS'918'
p689
I916
sS'915'
p690
I913
sS'914'
p691
I912
sS'917'
p692
I915
sS'916'
p693
I914
sS'911'
p694
I909
sS'910'
p695
I908
sS'913'
p696
I911
sS'912'
p697
I910
sS'630'
p698
I628
sS'631'
p699
I629
sS'632'
p700
I630
sS'1211'
p701
I1209
sS'634'
p702
I632
sS'635'
p703
I633
sS'1214'
p704
I1212
sS'1215'
p705
I1213
sS'1111'
p706
I1109
sS'1110'
p707
I1108
sS'1113'
p708
I1111
sS'1112'
p709
I1110
sS'1115'
p710
I1113
sS'1114'
p711
I1112
sS'1117'
p712
I1115
sS'1440'
p713
I1438
sS'1119'
p714
I1117
sS'1118'
p715
I1116
sS'1449'
p716
I1447
sS'1448'
p717
I1446
sS'4859'
p718
I4857
sS'2005'
p719
I2003
sS'4857'
p720
I4855
sS'4584'
p721
I4582
sS'2008'
p722
I2006
sS'2009'
p723
I2007
sS'4581'
p724
I4579
sS'4580'
p725
I4578
sS'4725'
p726
I4723
sS'4583'
p727
I4581
sS'4724'
p728
I4722
sS'4582'
p729
I4580
sS'4727'
p730
I4725
sS'4726'
p731
I4724
sS'4721'
p732
I4719
sS'4720'
p733
I4718
sS'4723'
p734
I4721
sS'4789'
p735
I4787
sS'4788'
p736
I4786
sS'4787'
p737
I4785
sS'4786'
p738
I4784
sS'4785'
p739
I4783
sS'4722'
p740
I4720
sS'4783'
p741
I4781
sS'4782'
p742
I4780
sS'4781'
p743
I4779
sS'4780'
p744
I4778
sS'5821'
p745
I5819
sS'5820'
p746
I5818
sS'5823'
p747
I5821
sS'5822'
p748
I5820
sS'5825'
p749
I5823
sS'5824'
p750
I5822
sS'5827'
p751
I5825
sS'5826'
p752
I5824
sS'5829'
p753
I5827
sS'5828'
p754
I5826
sS'1182'
p755
I1180
sS'199'
p756
I198
sS'198'
p757
I197
sS'195'
p758
I194
sS'194'
p759
I193
sS'197'
p760
I196
sS'196'
p761
I195
sS'191'
p762
I190
sS'190'
p763
I189
sS'193'
p764
I192
sS'192'
p765
I191
sS'2769'
p766
I2767
sS'2768'
p767
I2766
sS'2763'
p768
I2761
sS'2762'
p769
I2760
sS'2761'
p770
I2759
sS'2760'
p771
I2758
sS'2767'
p772
I2765
sS'2766'
p773
I2764
sS'2765'
p774
I2763
sS'2764'
p775
I2762
sS'6271'
p776
I6269
sS'6270'
p777
I6268
sS'6273'
p778
I6271
sS'6272'
p779
I6270
sS'6275'
p780
I6273
sS'6274'
p781
I6272
sS'6277'
p782
I6275
sS'6276'
p783
I6274
sS'6279'
p784
I6277
sS'6278'
p785
I6276
sS'1183'
p786
I1181
sS'3452'
p787
I3450
sS'3453'
p788
I3451
sS'3450'
p789
I3448
sS'3451'
p790
I3449
sS'3456'
p791
I3454
sS'3457'
p792
I3455
sS'3454'
p793
I3452
sS'3455'
p794
I3453
sS'3458'
p795
I3456
sS'3459'
p796
I3457
sS'858'
p797
I856
sS'859'
p798
I857
sS'6'
p799
I5
sS'5229'
p800
I5227
sS'5228'
p801
I5226
sS'5223'
p802
I5221
sS'5222'
p803
I5220
sS'5221'
p804
I5219
sS'5220'
p805
I5218
sS'5227'
p806
I5225
sS'5226'
p807
I5224
sS'5225'
p808
I5223
sS'5224'
p809
I5222
sS'4588'
p810
I4586
sS'3063'
p811
I3061
sS'3062'
p812
I3060
sS'3061'
p813
I3059
sS'3060'
p814
I3058
sS'3067'
p815
I3065
sS'3066'
p816
I3064
sS'3065'
p817
I3063
sS'3064'
p818
I3062
sS'3069'
p819
I3067
sS'3068'
p820
I3066
sS'4817'
p821
I4815
sS'4816'
p822
I4814
sS'1304'
p823
I1302
sS'1305'
p824
I1303
sS'1306'
p825
I1304
sS'1307'
p826
I1305
sS'1300'
p827
I1298
sS'1301'
p828
I1299
sS'1302'
p829
I1300
sS'1303'
p830
I1301
sS'1308'
p831
I1306
sS'1309'
p832
I1307
sS'498'
p833
I496
sS'499'
p834
I497
sS'494'
p835
I492
sS'495'
p836
I493
sS'496'
p837
I494
sS'497'
p838
I495
sS'490'
p839
I488
sS'491'
p840
I489
sS'492'
p841
I490
sS'493'
p842
I491
sS'3939'
p843
I3937
sS'3938'
p844
I3936
sS'3935'
p845
I3933
sS'3934'
p846
I3932
sS'3937'
p847
I3935
sS'3936'
p848
I3934
sS'3931'
p849
I3929
sS'3930'
p850
I3928
sS'3933'
p851
I3931
sS'3932'
p852
I3930
sS'3265'
p853
I3263
sS'4044'
p854
I4042
sS'4045'
p855
I4043
sS'4046'
p856
I4044
sS'4047'
p857
I4045
sS'4040'
p858
I4038
sS'4041'
p859
I4039
sS'4042'
p860
I4040
sS'4043'
p861
I4041
sS'4048'
p862
I4046
sS'4049'
p863
I4047
sS'3665'
p864
I3663
sS'3664'
p865
I3662
sS'3667'
p866
I3665
sS'3666'
p867
I3664
sS'3661'
p868
I3659
sS'3660'
p869
I3658
sS'3663'
p870
I3661
sS'3662'
p871
I3660
sS'3669'
p872
I3667
sS'3668'
p873
I3666
sS'5582'
p874
I5580
sS'446'
p875
I444
sS'2578'
p876
I2576
sS'2579'
p877
I2577
sS'2576'
p878
I2574
sS'2577'
p879
I2575
sS'2574'
p880
I2572
sS'2575'
p881
I2573
sS'2572'
p882
I2570
sS'2573'
p883
I2571
sS'2570'
p884
I2568
sS'2571'
p885
I2569
sS'3593'
p886
I3591
sS'3592'
p887
I3590
sS'3591'
p888
I3589
sS'3590'
p889
I3588
sS'3597'
p890
I3595
sS'3596'
p891
I3594
sS'5038'
p892
I5036
sS'3594'
p893
I3592
sS'5036'
p894
I5034
sS'5037'
p895
I5035
sS'5034'
p896
I5032
sS'5035'
p897
I5033
sS'5032'
p898
I5030
sS'5033'
p899
I5031
sS'5030'
p900
I5028
sS'5031'
p901
I5029
sS'4435'
p902
I4433
sS'4434'
p903
I4432
sS'4437'
p904
I4435
sS'4436'
p905
I4434
sS'4431'
p906
I4429
sS'4430'
p907
I4428
sS'4433'
p908
I4431
sS'4432'
p909
I4430
sS'4439'
p910
I4437
sS'4438'
p911
I4436
sS'977'
p912
I975
sS'976'
p913
I974
sS'975'
p914
I973
sS'974'
p915
I972
sS'973'
p916
I971
sS'972'
p917
I970
sS'971'
p918
I969
sS'970'
p919
I968
sS'979'
p920
I977
sS'978'
p921
I976
sS'3386'
p922
I3384
sS'3387'
p923
I3385
sS'3384'
p924
I3382
sS'3385'
p925
I3383
sS'5410'
p926
I5408
sS'5411'
p927
I5409
sS'5412'
p928
I5410
sS'5413'
p929
I5411
sS'1681'
p930
I1679
sS'1680'
p931
I1678
sS'1683'
p932
I1681
sS'1682'
p933
I1680
sS'1685'
p934
I1683
sS'1684'
p935
I1682
sS'1687'
p936
I1685
sS'1686'
p937
I1684
sS'1689'
p938
I1687
sS'1688'
p939
I1686
sS'653'
p940
I651
sS'1469'
p941
I1467
sS'1468'
p942
I1466
sS'1465'
p943
I1463
sS'1464'
p944
I1462
sS'1467'
p945
I1465
sS'1466'
p946
I1464
sS'1461'
p947
I1459
sS'1460'
p948
I1458
sS'1463'
p949
I1461
sS'1462'
p950
I1460
sS'4239'
p951
I4237
sS'4238'
p952
I4236
sS'4237'
p953
I4235
sS'4236'
p954
I4234
sS'4235'
p955
I4233
sS'4234'
p956
I4232
sS'4233'
p957
I4231
sS'4232'
p958
I4230
sS'4231'
p959
I4229
sS'4230'
p960
I4228
sS'5591'
p961
I5589
sS'5590'
p962
I5588
sS'5593'
p963
I5591
sS'5592'
p964
I5590
sS'5595'
p965
I5593
sS'5594'
p966
I5592
sS'5597'
p967
I5595
sS'5596'
p968
I5594
sS'5599'
p969
I5597
sS'5598'
p970
I5596
sS'3035'
p971
I3033
sS'319'
p972
I317
sS'318'
p973
I316
sS'313'
p974
I311
sS'312'
p975
I310
sS'311'
p976
I309
sS'310'
p977
I308
sS'317'
p978
I315
sS'316'
p979
I314
sS'315'
p980
I313
sS'314'
p981
I312
sS'4213'
p982
I4211
sS'443'
p983
I441
sS'442'
p984
I440
sS'441'
p985
I439
sS'440'
p986
I438
sS'447'
p987
I445
sS'4218'
p988
I4216
sS'445'
p989
I443
sS'444'
p990
I442
sS'2299'
p991
I2297
sS'2298'
p992
I2296
sS'2293'
p993
I2291
sS'2292'
p994
I2290
sS'2291'
p995
I2289
sS'2290'
p996
I2288
sS'2297'
p997
I2295
sS'2296'
p998
I2294
sS'2295'
p999
I2293
sS'2294'
p1000
I2292
sS'6299'
p1001
I6297
sS'6298'
p1002
I6296
sS'6297'
p1003
I6295
sS'6296'
p1004
I6294
sS'6295'
p1005
I6293
sS'5578'
p1006
I5576
sS'6293'
p1007
I6291
sS'6292'
p1008
I6290
sS'6291'
p1009
I6289
sS'6290'
p1010
I6288
sS'5574'
p1011
I5572
sS'5572'
p1012
I5570
sS'4672'
p1013
I4670
sS'3438'
p1014
I3436
sS'3439'
p1015
I3437
sS'4936'
p1016
I4934
sS'878'
p1017
I876
sS'879'
p1018
I877
sS'3430'
p1019
I3428
sS'3431'
p1020
I3429
sS'874'
p1021
I872
sS'3433'
p1022
I3431
sS'3434'
p1023
I3432
sS'873'
p1024
I871
sS'3436'
p1025
I3434
sS'3437'
p1026
I3435
sS'2741'
p1027
I2739
sS'2740'
p1028
I2738
sS'2743'
p1029
I2741
sS'2742'
p1030
I2740
sS'4848'
p1031
I4846
sS'2744'
p1032
I2742
sS'2747'
p1033
I2745
sS'2746'
p1034
I2744
sS'4844'
p1035
I4842
sS'2748'
p1036
I2746
sS'4846'
p1037
I4844
sS'4847'
p1038
I4845
sS'4840'
p1039
I4838
sS'4841'
p1040
I4839
sS'4842'
p1041
I4840
sS'2038'
p1042
I2036
sS'5201'
p1043
I5199
sS'5200'
p1044
I5198
sS'5203'
p1045
I5201
sS'5202'
p1046
I5200
sS'5205'
p1047
I5203
sS'5204'
p1048
I5202
sS'5207'
p1049
I5205
sS'5206'
p1050
I5204
sS'5209'
p1051
I5207
sS'5208'
p1052
I5206
sS'3049'
p1053
I3047
sS'3048'
p1054
I3046
sS'3041'
p1055
I3039
sS'3040'
p1056
I3038
sS'3043'
p1057
I3041
sS'3042'
p1058
I3040
sS'3045'
p1059
I3043
sS'3044'
p1060
I3042
sS'3047'
p1061
I3045
sS'3046'
p1062
I3044
sS'1094'
p1063
I1092
sS'1095'
p1064
I1093
sS'1096'
p1065
I1094
sS'1097'
p1066
I1095
sS'1090'
p1067
I1088
sS'1091'
p1068
I1089
sS'1092'
p1069
I1090
sS'1093'
p1070
I1091
sS'1912'
p1071
I1910
sS'1098'
p1072
I1096
sS'1099'
p1073
I1097
sS'1915'
p1074
I1913
sS'1322'
p1075
I1320
sS'1323'
p1076
I1321
sS'1320'
p1077
I1318
sS'1321'
p1078
I1319
sS'1326'
p1079
I1324
sS'1327'
p1080
I1325
sS'1914'
p1081
I1912
sS'1325'
p1082
I1323
sS'1328'
p1083
I1326
sS'1329'
p1084
I1327
sS'1917'
p1085
I1915
sS'1916'
p1086
I1914
sS'3958'
p1087
I3956
sS'3953'
p1088
I3951
sS'3952'
p1089
I3950
sS'3951'
p1090
I3949
sS'3950'
p1091
I3948
sS'3957'
p1092
I3955
sS'3956'
p1093
I3954
sS'3955'
p1094
I3953
sS'3954'
p1095
I3952
sS'1546'
p1096
I1544
sS'4062'
p1097
I4060
sS'4063'
p1098
I4061
sS'4060'
p1099
I4058
sS'4061'
p1100
I4059
sS'4066'
p1101
I4064
sS'4067'
p1102
I4065
sS'4064'
p1103
I4062
sS'4065'
p1104
I4063
sS'4068'
p1105
I4066
sS'4069'
p1106
I4067
sS'5784'
p1107
I5782
sS'5785'
p1108
I5783
sS'5786'
p1109
I5784
sS'5787'
p1110
I5785
sS'5780'
p1111
I5778
sS'5781'
p1112
I5779
sS'5782'
p1113
I5780
sS'5783'
p1114
I5781
sS'5788'
p1115
I5786
sS'5789'
p1116
I5787
sS'3603'
p1117
I3601
sS'3602'
p1118
I3600
sS'3601'
p1119
I3599
sS'3600'
p1120
I3598
sS'3607'
p1121
I3605
sS'3606'
p1122
I3604
sS'3605'
p1123
I3603
sS'3604'
p1124
I3602
sS'3609'
p1125
I3607
sS'3608'
p1126
I3606
sS'4593'
p1127
I4591
sS'4453'
p1128
I4451
sS'4452'
p1129
I4450
sS'4451'
p1130
I4449
sS'4450'
p1131
I4448
sS'4457'
p1132
I4455
sS'4456'
p1133
I4454
sS'4455'
p1134
I4453
sS'4454'
p1135
I4452
sS'4459'
p1136
I4457
sS'4458'
p1137
I4456
sS'959'
p1138
I957
sS'958'
p1139
I956
sS'951'
p1140
I949
sS'950'
p1141
I948
sS'953'
p1142
I951
sS'952'
p1143
I950
sS'955'
p1144
I953
sS'954'
p1145
I952
sS'957'
p1146
I955
sS'956'
p1147
I954
sS'717'
p1148
I715
sS'4969'
p1149
I4967
sS'4968'
p1150
I4966
sS'716'
p1151
I714
sS'2178'
p1152
I2176
sS'4964'
p1153
I4962
sS'1669'
p1154
I1667
sS'1668'
p1155
I1666
sS'1667'
p1156
I1665
sS'1666'
p1157
I1664
sS'1665'
p1158
I1663
sS'1664'
p1159
I1662
sS'1663'
p1160
I1661
sS'1662'
p1161
I1660
sS'1661'
p1162
I1659
sS'1660'
p1163
I1658
sS'591'
p1164
I589
sS'590'
p1165
I588
sS'593'
p1166
I591
sS'592'
p1167
I590
sS'595'
p1168
I593
sS'594'
p1169
I592
sS'597'
p1170
I595
sS'596'
p1171
I594
sS'599'
p1172
I597
sS'598'
p1173
I596
sS'2828'
p1174
I2826
sS'2829'
p1175
I2827
sS'2824'
p1176
I2822
sS'2825'
p1177
I2823
sS'2826'
p1178
I2824
sS'2827'
p1179
I2825
sS'2820'
p1180
I2818
sS'2821'
p1181
I2819
sS'2822'
p1182
I2820
sS'2823'
p1183
I2821
sS'5414'
p1184
I5412
sS'5415'
p1185
I5413
sS'5416'
p1186
I5414
sS'5417'
p1187
I5415
sS'3382'
p1188
I3380
sS'3383'
p1189
I3381
sS'3380'
p1190
I3378
sS'3381'
p1191
I3379
sS'5418'
p1192
I5416
sS'5419'
p1193
I5417
sS'3388'
p1194
I3386
sS'3389'
p1195
I3387
sS'1409'
p1196
I1407
sS'1408'
p1197
I1406
sS'1403'
p1198
I1401
sS'1402'
p1199
I1400
sS'1401'
p1200
I1399
sS'1400'
p1201
I1398
sS'1407'
p1202
I1405
sS'1406'
p1203
I1404
sS'1405'
p1204
I1403
sS'1404'
p1205
I1402
sS'4215'
p1206
I4213
sS'4214'
p1207
I4212
sS'4217'
p1208
I4215
sS'4216'
p1209
I4214
sS'4211'
p1210
I4209
sS'4210'
p1211
I4208
sS'1491'
p1212
I1489
sS'4212'
p1213
I4210
sS'5790'
p1214
I5788
sS'4219'
p1215
I4217
sS'1544'
p1216
I1542
sS'1545'
p1217
I1543
sS'1542'
p1218
I1540
sS'1543'
p1219
I1541
sS'3261'
p1220
I3259
sS'1540'
p1221
I1538
sS'5579'
p1222
I5577
sS'3260'
p1223
I3258
sS'5577'
p1224
I5575
sS'5576'
p1225
I5574
sS'5575'
p1226
I5573
sS'1541'
p1227
I1539
sS'5573'
p1228
I5571
sS'3263'
p1229
I3261
sS'5571'
p1230
I5569
sS'5570'
p1231
I5568
sS'3262'
p1232
I3260
sS'5799'
p1233
I5797
sS'1937'
p1234
I1935
sS'5798'
p1235
I5796
sS'3264'
p1236
I3262
sS'339'
p1237
I337
sS'3267'
p1238
I3265
sS'335'
p1239
I333
sS'334'
p1240
I332
sS'337'
p1241
I335
sS'3266'
p1242
I3264
sS'331'
p1243
I329
sS'330'
p1244
I328
sS'333'
p1245
I331
sS'332'
p1246
I330
sS'5124'
p1247
I5122
sS'5125'
p1248
I5123
sS'5126'
p1249
I5124
sS'5127'
p1250
I5125
sS'5002'
p1251
I5000
sS'3195'
p1252
I3193
sS'3200'
p1253
I3198
sS'1497'
p1254
I1495
sS'6109'
p1255
I6107
sS'6108'
p1256
I6106
sS'6107'
p1257
I6105
sS'6106'
p1258
I6104
sS'6105'
p1259
I6103
sS'6104'
p1260
I6102
sS'6103'
p1261
I6101
sS'6102'
p1262
I6100
sS'6101'
p1263
I6099
sS'6100'
p1264
I6098
sS'3416'
p1265
I3414
sS'3417'
p1266
I3415
sS'3414'
p1267
I3412
sS'3415'
p1268
I3413
sS'3412'
p1269
I3410
sS'3413'
p1270
I3411
sS'3410'
p1271
I3408
sS'3411'
p1272
I3409
sS'3418'
p1273
I3416
sS'3419'
p1274
I3417
sS'4868'
p1275
I4866
sS'4869'
p1276
I4867
sS'2019'
p1277
I2017
sS'2018'
p1278
I2016
sS'2015'
p1279
I2013
sS'2014'
p1280
I2012
sS'2017'
p1281
I2015
sS'2016'
p1282
I2014
sS'2011'
p1283
I2009
sS'2010'
p1284
I2008
sS'4864'
p1285
I4862
sS'4865'
p1286
I4863
sS'458'
p1287
I456
sS'1349'
p1288
I1347
sS'450'
p1289
I448
sS'451'
p1290
I449
sS'1342'
p1291
I1340
sS'1343'
p1292
I1341
sS'454'
p1293
I452
sS'455'
p1294
I453
sS'1346'
p1295
I1344
sS'1347'
p1296
I1345
sS'832'
p1297
I830
sS'833'
p1298
I831
sS'752'
p1299
I750
sS'4008'
p1300
I4006
sS'4009'
p1301
I4007
sS'4000'
p1302
I3998
sS'4001'
p1303
I3999
sS'4002'
p1304
I4000
sS'4003'
p1305
I4001
sS'4004'
p1306
I4002
sS'4005'
p1307
I4003
sS'4006'
p1308
I4004
sS'4007'
p1309
I4005
sS'3971'
p1310
I3969
sS'3970'
p1311
I3968
sS'3973'
p1312
I3971
sS'3972'
p1313
I3970
sS'3975'
p1314
I3973
sS'3974'
p1315
I3972
sS'3977'
p1316
I3975
sS'3976'
p1317
I3974
sS'3979'
p1318
I3977
sS'3978'
p1319
I3976
sS'3629'
p1320
I3627
sS'3628'
p1321
I3626
sS'3621'
p1322
I3619
sS'3620'
p1323
I3618
sS'3623'
p1324
I3621
sS'3622'
p1325
I3620
sS'3625'
p1326
I3623
sS'3624'
p1327
I3622
sS'3627'
p1328
I3625
sS'3626'
p1329
I3624
sS'4479'
p1330
I4477
sS'4478'
p1331
I4476
sS'2955'
p1332
I2953
sS'4471'
p1333
I4469
sS'4470'
p1334
I4468
sS'4473'
p1335
I4471
sS'4472'
p1336
I4470
sS'4475'
p1337
I4473
sS'4474'
p1338
I4472
sS'4477'
p1339
I4475
sS'4476'
p1340
I4474
sS'2953'
p1341
I2951
sS'2464'
p1342
I2462
sS'2465'
p1343
I2463
sS'2466'
p1344
I2464
sS'2467'
p1345
I2465
sS'2460'
p1346
I2458
sS'2461'
p1347
I2459
sS'2462'
p1348
I2460
sS'2463'
p1349
I2461
sS'2468'
p1350
I2466
sS'2469'
p1351
I2467
sS'1026'
p1352
I1024
sS'1021'
p1353
I1019
sS'1020'
p1354
I1018
sS'1023'
p1355
I1021
sS'5343'
p1356
I5341
sS'6312'
p1357
I6310
sS'6313'
p1358
I6311
sS'6310'
p1359
I6308
sS'6311'
p1360
I6309
sS'6316'
p1361
I6314
sS'6317'
p1362
I6315
sS'6314'
p1363
I6312
sS'6315'
p1364
I6313
sS'6318'
p1365
I6316
sS'6319'
p1366
I6317
sS'5348'
p1367
I5346
sS'5349'
p1368
I5347
sS'1645'
p1369
I1643
sS'1644'
p1370
I1642
sS'1647'
p1371
I1645
sS'1646'
p1372
I1644
sS'1641'
p1373
I1639
sS'1640'
p1374
I1638
sS'1643'
p1375
I1641
sS'1642'
p1376
I1640
sS'1649'
p1377
I1647
sS'1648'
p1378
I1646
sS'579'
p1379
I577
sS'578'
p1380
I576
sS'573'
p1381
I571
sS'572'
p1382
I570
sS'571'
p1383
I569
sS'570'
p1384
I568
sS'577'
p1385
I575
sS'576'
p1386
I574
sS'575'
p1387
I573
sS'574'
p1388
I572
sS'2808'
p1389
I2806
sS'2809'
p1390
I2807
sS'4956'
p1391
I4954
sS'2802'
p1392
I2800
sS'2803'
p1393
I2801
sS'2800'
p1394
I2798
sS'2801'
p1395
I2799
sS'2806'
p1396
I2804
sS'2807'
p1397
I2805
sS'2804'
p1398
I2802
sS'2805'
p1399
I2803
sS'5432'
p1400
I5430
sS'5433'
p1401
I5431
sS'1423'
p1402
I1421
sS'5431'
p1403
I5429
sS'5436'
p1404
I5434
sS'5437'
p1405
I5435
sS'1427'
p1406
I1425
sS'5435'
p1407
I5433
sS'3364'
p1408
I3362
sS'3365'
p1409
I3363
sS'5438'
p1410
I5436
sS'5439'
p1411
I5437
sS'3360'
p1412
I3358
sS'3361'
p1413
I3359
sS'3362'
p1414
I3360
sS'3363'
p1415
I3361
sS'4273'
p1416
I4271
sS'4272'
p1417
I4270
sS'4271'
p1418
I4269
sS'4270'
p1419
I4268
sS'4277'
p1420
I4275
sS'4276'
p1421
I4274
sS'4275'
p1422
I4273
sS'4274'
p1423
I4272
sS'1201'
p1424
I1199
sS'4279'
p1425
I4277
sS'4278'
p1426
I4276
sS'1200'
p1427
I1198
sS'5555'
p1428
I5553
sS'4862'
p1429
I4860
sS'5557'
p1430
I5555
sS'5556'
p1431
I5554
sS'5551'
p1432
I5549
sS'5550'
p1433
I5548
sS'5553'
p1434
I5551
sS'4863'
p1435
I4861
sS'5559'
p1436
I5557
sS'4860'
p1437
I4858
sS'4861'
p1438
I4859
sS'4866'
p1439
I4864
sS'4867'
p1440
I4865
sS'2013'
p1441
I2011
sS'2012'
p1442
I2010
sS'5129'
p1443
I5127
sS'5883'
p1444
I5881
sS'5882'
p1445
I5880
sS'5881'
p1446
I5879
sS'5880'
p1447
I5878
sS'5887'
p1448
I5885
sS'5886'
p1449
I5884
sS'5885'
p1450
I5883
sS'5884'
p1451
I5882
sS'5889'
p1452
I5887
sS'5888'
p1453
I5886
sS'5873'
p1454
I5871
sS'5875'
p1455
I5873
sS'357'
p1456
I355
sS'356'
p1457
I354
sS'355'
p1458
I353
sS'354'
p1459
I352
sS'353'
p1460
I351
sS'352'
p1461
I350
sS'351'
p1462
I349
sS'350'
p1463
I348
sS'359'
p1464
I357
sS'358'
p1465
I356
sS'6125'
p1466
I6123
sS'4855'
p1467
I4853
sS'6127'
p1468
I6125
sS'6126'
p1469
I6124
sS'6121'
p1470
I6119
sS'6120'
p1471
I6118
sS'6123'
p1472
I6121
sS'6122'
p1473
I6120
sS'6129'
p1474
I6127
sS'6128'
p1475
I6126
sS'4854'
p1476
I4852
sS'2190'
p1477
I2188
sS'3225'
p1478
I3223
sS'4632'
p1479
I4630
sS'2192'
p1480
I2190
sS'2193'
p1481
I2191
sS'2259'
p1482
I2257
sS'2258'
p1483
I2256
sS'2257'
p1484
I2255
sS'4637'
p1485
I4635
sS'2255'
p1486
I2253
sS'2254'
p1487
I2252
sS'2253'
p1488
I2251
sS'2252'
p1489
I2250
sS'2251'
p1490
I2249
sS'4636'
p1491
I4634
sS'3224'
p1492
I3222
sS'4635'
p1493
I4633
sS'4634'
p1494
I4632
sS'4800'
p1495
I4798
sS'3227'
p1496
I3225
sS'4802'
p1497
I4800
sS'4803'
p1498
I4801
sS'4804'
p1499
I4802
sS'4805'
p1500
I4803
sS'4806'
p1501
I4804
sS'4807'
p1502
I4805
sS'4808'
p1503
I4806
sS'4809'
p1504
I4807
sS'2789'
p1505
I2787
sS'2788'
p1506
I2786
sS'2079'
p1507
I2077
sS'2078'
p1508
I2076
sS'2073'
p1509
I2071
sS'2072'
p1510
I2070
sS'2071'
p1511
I2069
sS'2070'
p1512
I2068
sS'2077'
p1513
I2075
sS'2076'
p1514
I2074
sS'2075'
p1515
I2073
sS'3226'
p1516
I3224
sS'3221'
p1517
I3219
sS'3220'
p1518
I3218
sS'3223'
p1519
I3221
sS'3222'
p1520
I3220
sS'4398'
p1521
I4396
sS'4399'
p1522
I4397
sS'4390'
p1523
I4388
sS'4391'
p1524
I4389
sS'4392'
p1525
I4390
sS'4393'
p1526
I4391
sS'4394'
p1527
I4392
sS'4395'
p1528
I4393
sS'4396'
p1529
I4394
sS'4397'
p1530
I4395
sS'3197'
p1531
I3195
sS'3196'
p1532
I3194
sS'470'
p1533
I468
sS'3194'
p1534
I3192
sS'3193'
p1535
I3191
sS'3192'
p1536
I3190
sS'3191'
p1537
I3189
sS'3190'
p1538
I3188
sS'478'
p1539
I476
sS'479'
p1540
I477
sS'3199'
p1541
I3197
sS'3198'
p1542
I3196
sS'4026'
p1543
I4024
sS'4027'
p1544
I4025
sS'4024'
p1545
I4022
sS'4025'
p1546
I4023
sS'4022'
p1547
I4020
sS'4023'
p1548
I4021
sS'4020'
p1549
I4018
sS'4021'
p1550
I4019
sS'4028'
p1551
I4026
sS'4029'
p1552
I4027
sS'3999'
p1553
I3997
sS'3998'
p1554
I3996
sS'3997'
p1555
I3995
sS'3996'
p1556
I3994
sS'3995'
p1557
I3993
sS'3994'
p1558
I3992
sS'3993'
p1559
I3991
sS'3992'
p1560
I3990
sS'3991'
p1561
I3989
sS'3990'
p1562
I3988
sS'298'
p1563
I296
sS'299'
p1564
I297
sS'296'
p1565
I294
sS'297'
p1566
I295
sS'294'
p1567
I292
sS'295'
p1568
I293
sS'292'
p1569
I290
sS'293'
p1570
I291
sS'290'
p1571
I288
sS'291'
p1572
I289
sS'581'
p1573
I579
sS'5487'
p1574
I5485
sS'2442'
p1575
I2440
sS'2443'
p1576
I2441
sS'2440'
p1577
I2438
sS'2441'
p1578
I2439
sS'2446'
p1579
I2444
sS'2447'
p1580
I2445
sS'2444'
p1581
I2442
sS'2445'
p1582
I2443
sS'2448'
p1583
I2446
sS'2449'
p1584
I2447
sS'5486'
p1585
I5484
sS'5485'
p1586
I5483
sS'5484'
p1587
I5482
sS'5483'
p1588
I5481
sS'5407'
p1589
I5405
sS'5406'
p1590
I5404
sS'1434'
p1591
I1432
sS'5482'
p1592
I5480
sS'1435'
p1593
I1433
sS'1432'
p1594
I1430
sS'1433'
p1595
I1431
sS'1623'
p1596
I1621
sS'1622'
p1597
I1620
sS'1621'
p1598
I1619
sS'1620'
p1599
I1618
sS'1627'
p1600
I1625
sS'1626'
p1601
I1624
sS'1625'
p1602
I1623
sS'1624'
p1603
I1622
sS'1999'
p1604
I1997
sS'1998'
p1605
I1996
sS'1629'
p1606
I1627
sS'1628'
p1607
I1626
sS'3209'
p1608
I3207
sS'3208'
p1609
I3206
sS'5058'
p1610
I5056
sS'5059'
p1611
I5057
sS'2860'
p1612
I2858
sS'2861'
p1613
I2859
sS'2862'
p1614
I2860
sS'2863'
p1615
I2861
sS'559'
p1616
I557
sS'558'
p1617
I556
sS'2866'
p1618
I2864
sS'2867'
p1619
I2865
sS'555'
p1620
I553
sS'554'
p1621
I552
sS'557'
p1622
I555
sS'556'
p1623
I554
sS'551'
p1624
I549
sS'550'
p1625
I548
sS'553'
p1626
I551
sS'552'
p1627
I550
sS'3539'
p1628
I3537
sS'1438'
p1629
I1436
sS'5055'
p1630
I5053
sS'5408'
p1631
I5406
sS'1199'
p1632
I1197
sS'1198'
p1633
I1196
sS'3348'
p1634
I3346
sS'3349'
p1635
I3347
sS'1191'
p1636
I1189
sS'5451'
p1637
I5449
sS'1193'
p1638
I1191
sS'1192'
p1639
I1190
sS'1195'
p1640
I1193
sS'1194'
p1641
I1192
sS'1197'
p1642
I1195
sS'1196'
p1643
I1194
sS'4259'
p1644
I4257
sS'4258'
p1645
I4256
sS'4251'
p1646
I4249
sS'4250'
p1647
I4248
sS'4253'
p1648
I4251
sS'4252'
p1649
I4250
sS'4255'
p1650
I4253
sS'4254'
p1651
I4252
sS'4257'
p1652
I4255
sS'4256'
p1653
I4254
sS'5533'
p1654
I5531
sS'5532'
p1655
I5530
sS'5531'
p1656
I5529
sS'5530'
p1657
I5528
sS'5537'
p1658
I5535
sS'5536'
p1659
I5534
sS'5535'
p1660
I5533
sS'5534'
p1661
I5532
sS'5539'
p1662
I5537
sS'5538'
p1663
I5536
sS'1348'
p1664
I1346
sS'459'
p1665
I457
sS'4263'
p1666
I4261
sS'1340'
p1667
I1338
sS'1341'
p1668
I1339
sS'452'
p1669
I450
sS'3834'
p1670
I3832
sS'3835'
p1671
I3833
sS'3836'
p1672
I3834
sS'3837'
p1673
I3835
sS'3830'
p1674
I3828
sS'3831'
p1675
I3829
sS'3832'
p1676
I3830
sS'3833'
p1677
I3831
sS'1344'
p1678
I1342
sS'3838'
p1679
I3836
sS'3839'
p1680
I3837
sS'1345'
p1681
I1343
sS'456'
p1682
I454
sS'457'
p1683
I455
sS'379'
p1684
I377
sS'378'
p1685
I376
sS'371'
p1686
I369
sS'370'
p1687
I368
sS'373'
p1688
I371
sS'372'
p1689
I370
sS'375'
p1690
I373
sS'374'
p1691
I372
sS'377'
p1692
I375
sS'376'
p1693
I374
sS'6143'
p1694
I6141
sS'6142'
p1695
I6140
sS'6141'
p1696
I6139
sS'6140'
p1697
I6138
sS'6147'
p1698
I6145
sS'6146'
p1699
I6144
sS'6145'
p1700
I6143
sS'6144'
p1701
I6142
sS'6149'
p1702
I6147
sS'6148'
p1703
I6146
sS'3204'
p1704
I3202
sS'5549'
p1705
I5547
sS'2275'
p1706
I2273
sS'2274'
p1707
I2272
sS'2277'
p1708
I2275
sS'2276'
p1709
I2274
sS'2271'
p1710
I2269
sS'2270'
p1711
I2268
sS'2273'
p1712
I2271
sS'2272'
p1713
I2270
sS'2279'
p1714
I2277
sS'2278'
p1715
I2276
sS'5543'
p1716
I5541
sS'3201'
p1717
I3199
sS'5545'
p1718
I5543
sS'2051'
p1719
I2049
sS'2050'
p1720
I2048
sS'2053'
p1721
I2051
sS'2052'
p1722
I2050
sS'2055'
p1723
I2053
sS'2054'
p1724
I2052
sS'2057'
p1725
I2055
sS'4829'
p1726
I4827
sS'2059'
p1727
I2057
sS'2058'
p1728
I2056
sS'4824'
p1729
I4822
sS'4537'
p1730
I4535
sS'4822'
p1731
I4820
sS'4531'
p1732
I4529
sS'4532'
p1733
I4530
sS'4821'
p1734
I4819
sS'3783'
p1735
I3781
sS'5899'
p1736
I5897
sS'414'
p1737
I412
sS'415'
p1738
I413
sS'416'
p1739
I414
sS'417'
p1740
I415
sS'410'
p1741
I408
sS'411'
p1742
I409
sS'412'
p1743
I410
sS'413'
p1744
I411
sS'1384'
p1745
I1382
sS'1385'
p1746
I1383
sS'1386'
p1747
I1384
sS'1387'
p1748
I1385
sS'418'
p1749
I416
sS'419'
p1750
I417
sS'1382'
p1751
I1380
sS'1383'
p1752
I1381
sS'1775'
p1753
I1773
sS'5460'
p1754
I5458
sS'1774'
p1755
I1772
sS'1777'
p1756
I1775
sS'5277'
p1757
I5275
sS'5270'
p1758
I5268
sS'1770'
p1759
I1768
sS'1773'
p1760
I1771
sS'5273'
p1761
I5271
sS'5278'
p1762
I5276
sS'5279'
p1763
I5277
sS'5465'
p1764
I5463
sS'5464'
p1765
I5462
sS'2428'
p1766
I2426
sS'2429'
p1767
I2427
sS'2420'
p1768
I2418
sS'2421'
p1769
I2419
sS'2422'
p1770
I2420
sS'2423'
p1771
I2421
sS'2424'
p1772
I2422
sS'2425'
p1773
I2423
sS'2426'
p1774
I2424
sS'2427'
p1775
I2425
sS'5467'
p1776
I5465
sS'3461'
p1777
I3459
sS'5466'
p1778
I5464
sS'3460'
p1779
I3458
sS'1814'
p1780
I1812
sS'1815'
p1781
I1813
sS'1816'
p1782
I1814
sS'1817'
p1783
I1815
sS'1810'
p1784
I1808
sS'1811'
p1785
I1809
sS'1812'
p1786
I1810
sS'1813'
p1787
I1811
sS'1818'
p1788
I1816
sS'1819'
p1789
I1817
sS'2165'
p1790
I2163
sS'2164'
p1791
I2162
sS'2167'
p1792
I2165
sS'1609'
p1793
I1607
sS'1608'
p1794
I1606
sS'2166'
p1795
I2164
sS'3229'
p1796
I3227
sS'3228'
p1797
I3226
sS'1979'
p1798
I1977
sS'1978'
p1799
I1976
sS'1977'
p1800
I1975
sS'1976'
p1801
I1974
sS'1975'
p1802
I1973
sS'1974'
p1803
I1972
sS'1973'
p1804
I1971
sS'1972'
p1805
I1970
sS'1971'
p1806
I1969
sS'1970'
p1807
I1968
sS'2163'
p1808
I2161
sS'2162'
p1809
I2160
sS'2848'
p1810
I2846
sS'2849'
p1811
I2847
sS'2846'
p1812
I2844
sS'2847'
p1813
I2845
sS'2844'
p1814
I2842
sS'2845'
p1815
I2843
sS'2842'
p1816
I2840
sS'2843'
p1817
I2841
sS'2840'
p1818
I2838
sS'2841'
p1819
I2839
sS'3320'
p1820
I3318
sS'3321'
p1821
I3319
sS'3322'
p1822
I3320
sS'3323'
p1823
I3321
sS'3324'
p1824
I3322
sS'3325'
p1825
I3323
sS'3326'
p1826
I3324
sS'3327'
p1827
I3325
sS'3328'
p1828
I3326
sS'3329'
p1829
I3327
sS'5478'
p1830
I5476
sS'5479'
p1831
I5477
sS'5519'
p1832
I5517
sS'5518'
p1833
I5516
sS'5511'
p1834
I5509
sS'3038'
p1835
I3036
sS'5513'
p1836
I5511
sS'5512'
p1837
I5510
sS'5515'
p1838
I5513
sS'5514'
p1839
I5512
sS'5517'
p1840
I5515
sS'1554'
p1841
I1552
sS'537'
p1842
I535
sS'536'
p1843
I534
sS'535'
p1844
I533
sS'534'
p1845
I532
sS'533'
p1846
I531
sS'532'
p1847
I530
sS'531'
p1848
I529
sS'530'
p1849
I528
sS'539'
p1850
I537
sS'538'
p1851
I536
sS'1908'
p1852
I1906
sS'1909'
p1853
I1907
sS'3294'
p1854
I3292
sS'1907'
p1855
I1905
sS'3296'
p1856
I3294
sS'1905'
p1857
I1903
sS'1902'
p1858
I1900
sS'3291'
p1859
I3289
sS'1900'
p1860
I1898
sS'1901'
p1861
I1899
sS'3812'
p1862
I3810
sS'3813'
p1863
I3811
sS'3810'
p1864
I3808
sS'3811'
p1865
I3809
sS'3816'
p1866
I3814
sS'3817'
p1867
I3815
sS'3814'
p1868
I3812
sS'3815'
p1869
I3813
sS'3818'
p1870
I3816
sS'3819'
p1871
I3817
sS'6169'
p1872
I6167
sS'6168'
p1873
I6166
sS'6161'
p1874
I6159
sS'6160'
p1875
I6158
sS'6163'
p1876
I6161
sS'6162'
p1877
I6160
sS'6165'
p1878
I6163
sS'6164'
p1879
I6162
sS'6167'
p1880
I6165
sS'6166'
p1881
I6164
sS'2213'
p1882
I2211
sS'2212'
p1883
I2210
sS'2211'
p1884
I2209
sS'2210'
p1885
I2208
sS'2217'
p1886
I2215
sS'2216'
p1887
I2214
sS'2215'
p1888
I2213
sS'2214'
p1889
I2212
sS'2219'
p1890
I2217
sS'2218'
p1891
I2216
sS'6137'
p1892
I6135
sS'4518'
p1893
I4516
sS'4519'
p1894
I4517
sS'4512'
p1895
I4510
sS'4513'
p1896
I4511
sS'4510'
p1897
I4508
sS'4511'
p1898
I4509
sS'4516'
p1899
I4514
sS'4517'
p1900
I4515
sS'4514'
p1901
I4512
sS'4515'
p1902
I4513
sS'5289'
p1903
I5287
sS'5288'
p1904
I5286
sS'5281'
p1905
I5279
sS'5280'
p1906
I5278
sS'5283'
p1907
I5281
sS'5282'
p1908
I5280
sS'5285'
p1909
I5283
sS'5284'
p1910
I5282
sS'5287'
p1911
I5285
sS'5286'
p1912
I5284
sS'2989'
p1913
I2987
sS'2988'
p1914
I2986
sS'2983'
p1915
I2981
sS'2982'
p1916
I2980
sS'2981'
p1917
I2979
sS'2980'
p1918
I2978
sS'2987'
p1919
I2985
sS'2986'
p1920
I2984
sS'2985'
p1921
I2983
sS'2984'
p1922
I2982
sS'1018'
p1923
I1016
sS'1019'
p1924
I1017
sS'1014'
p1925
I1012
sS'1015'
p1926
I1013
sS'1016'
p1927
I1014
sS'1017'
p1928
I1015
sS'1010'
p1929
I1008
sS'1011'
p1930
I1009
sS'1012'
p1931
I1010
sS'1013'
p1932
I1011
sS'4358'
p1933
I4356
sS'4359'
p1934
I4357
sS'4354'
p1935
I4352
sS'4355'
p1936
I4353
sS'4356'
p1937
I4354
sS'4357'
p1938
I4355
sS'4350'
p1939
I4348
sS'4351'
p1940
I4349
sS'4352'
p1941
I4350
sS'4353'
p1942
I4351
sS'438'
p1943
I436
sS'439'
p1944
I437
sS'436'
p1945
I434
sS'437'
p1946
I435
sS'434'
p1947
I432
sS'435'
p1948
I433
sS'432'
p1949
I430
sS'433'
p1950
I431
sS'430'
p1951
I428
sS'431'
p1952
I429
sS'1436'
p1953
I1434
sS'5708'
p1954
I5706
sS'5709'
p1955
I5707
sS'5704'
p1956
I5702
sS'5705'
p1957
I5703
sS'5706'
p1958
I5704
sS'5707'
p1959
I5705
sS'5700'
p1960
I5698
sS'5701'
p1961
I5699
sS'5702'
p1962
I5700
sS'5703'
p1963
I5701
sS'1437'
p1964
I1435
sS'5357'
p1965
I5355
sS'5356'
p1966
I5354
sS'1052'
p1967
I1050
sS'1430'
p1968
I1428
sS'5354'
p1969
I5352
sS'1054'
p1970
I1052
sS'1055'
p1971
I1053
sS'1056'
p1972
I1054
sS'1057'
p1973
I1055
sS'1431'
p1974
I1429
sS'1832'
p1975
I1830
sS'1833'
p1976
I1831
sS'1830'
p1977
I1828
sS'1831'
p1978
I1829
sS'1836'
p1979
I1834
sS'3798'
p1980
I3796
sS'1834'
p1981
I1832
sS'1835'
p1982
I1833
sS'3795'
p1983
I3793
sS'3794'
p1984
I3792
sS'1838'
p1985
I1836
sS'3796'
p1986
I3794
sS'3791'
p1987
I3789
sS'3790'
p1988
I3788
sS'3793'
p1989
I3791
sS'3792'
p1990
I3790
sS'4981'
p1991
I4979
sS'4980'
p1992
I4978
sS'4983'
p1993
I4981
sS'2157'
p1994
I2155
sS'4985'
p1995
I4983
sS'4984'
p1996
I4982
sS'2400'
p1997
I2398
sS'4986'
p1998
I4984
sS'4989'
p1999
I4987
sS'4988'
p2000
I4986
sS'2158'
p2001
I2156
sS'2159'
p2002
I2157
sS'2408'
p2003
I2406
sS'2409'
p2004
I2407
sS'1955'
p2005
I1953
sS'1954'
p2006
I1952
sS'1957'
p2007
I1955
sS'1956'
p2008
I1954
sS'1951'
p2009
I1949
sS'1950'
p2010
I1948
sS'1953'
p2011
I1951
sS'1952'
p2012
I1950
sS'1959'
p2013
I1957
sS'1958'
p2014
I1956
sS'3249'
p2015
I3247
sS'3248'
p2016
I3246
sS'3243'
p2017
I3241
sS'3242'
p2018
I3240
sS'3241'
p2019
I3239
sS'3240'
p2020
I3238
sS'3247'
p2021
I3245
sS'3246'
p2022
I3244
sS'3245'
p2023
I3243
sS'1990'
p2024
I1988
sS'1993'
p2025
I1991
sS'1483'
p2026
I1481
sS'1482'
p2027
I1480
sS'1481'
p2028
I1479
sS'1480'
p2029
I1478
sS'1487'
p2030
I1485
sS'1486'
p2031
I1484
sS'1485'
p2032
I1483
sS'1484'
p2033
I1482
sS'3306'
p2034
I3304
sS'3307'
p2035
I3305
sS'1489'
p2036
I1487
sS'1488'
p2037
I1486
sS'3302'
p2038
I3300
sS'3303'
p2039
I3301
sS'3300'
p2040
I3298
sS'3301'
p2041
I3299
sS'1992'
p2042
I1990
sS'612'
p2043
I610
sS'613'
p2044
I611
sS'610'
p2045
I608
sS'1273'
p2046
I1271
sS'1995'
p2047
I1993
sS'1275'
p2048
I1273
sS'2060'
p2049
I2058
sS'614'
p2050
I612
sS'2061'
p2051
I2059
sS'615'
p2052
I613
sS'2062'
p2053
I2060
sS'2063'
p2054
I2061
sS'1994'
p2055
I1992
sS'2064'
p2056
I2062
sS'2065'
p2057
I2063
sS'519'
p2058
I517
sS'518'
p2059
I516
sS'2066'
p2060
I2064
sS'511'
p2061
I509
sS'510'
p2062
I508
sS'513'
p2063
I511
sS'512'
p2064
I510
sS'515'
p2065
I513
sS'514'
p2066
I512
sS'517'
p2067
I515
sS'516'
p2068
I514
sS'1227'
p2069
I1225
sS'1226'
p2070
I1224
sS'621'
p2071
I619
sS'1224'
p2072
I1222
sS'1223'
p2073
I1221
sS'1222'
p2074
I1220
sS'1221'
p2075
I1219
sS'1220'
p2076
I1218
sS'629'
p2077
I627
sS'628'
p2078
I626
sS'1229'
p2079
I1227
sS'1228'
p2080
I1226
sS'3878'
p2081
I3876
sS'3879'
p2082
I3877
sS'3870'
p2083
I3868
sS'3871'
p2084
I3869
sS'3872'
p2085
I3870
sS'3873'
p2086
I3871
sS'3874'
p2087
I3872
sS'3875'
p2088
I3873
sS'3876'
p2089
I3874
sS'3877'
p2090
I3875
sS'4167'
p2091
I4165
sS'4166'
p2092
I4164
sS'4165'
p2093
I4163
sS'4164'
p2094
I4162
sS'4163'
p2095
I4161
sS'4162'
p2096
I4160
sS'4161'
p2097
I4159
sS'4160'
p2098
I4158
sS'4169'
p2099
I4167
sS'4168'
p2100
I4166
sS'2239'
p2101
I2237
sS'2238'
p2102
I2236
sS'2231'
p2103
I2229
sS'2230'
p2104
I2228
sS'2233'
p2105
I2231
sS'2232'
p2106
I2230
sS'2235'
p2107
I2233
sS'2234'
p2108
I2232
sS'2237'
p2109
I2235
sS'2236'
p2110
I2234
sS'5937'
p2111
I5935
sS'5936'
p2112
I5934
sS'5935'
p2113
I5933
sS'5934'
p2114
I5932
sS'5933'
p2115
I5931
sS'5932'
p2116
I5930
sS'5931'
p2117
I5929
sS'5930'
p2118
I5928
sS'5939'
p2119
I5937
sS'5938'
p2120
I5936
sS'4608'
p2121
I4606
sS'3498'
p2122
I3496
sS'3499'
p2123
I3497
sS'3496'
p2124
I3494
sS'3497'
p2125
I3495
sS'3494'
p2126
I3492
sS'3495'
p2127
I3493
sS'3492'
p2128
I3490
sS'3493'
p2129
I3491
sS'3490'
p2130
I3488
sS'3491'
p2131
I3489
sS'2095'
p2132
I2093
sS'2094'
p2133
I2092
sS'4572'
p2134
I4570
sS'4573'
p2135
I4571
sS'2091'
p2136
I2089
sS'2090'
p2137
I2088
sS'4576'
p2138
I4574
sS'2092'
p2139
I2090
sS'4578'
p2140
I4576
sS'4579'
p2141
I4577
sS'2099'
p2142
I2097
sS'2098'
p2143
I2096
sS'4605'
p2144
I4603
sS'3333'
p2145
I3331
sS'3'
p2146
I2
sS'3331'
p2147
I3329
sS'3330'
p2148
I3328
sS'1038'
p2149
I1036
sS'1039'
p2150
I1037
sS'1032'
p2151
I1030
sS'1033'
p2152
I1031
sS'1030'
p2153
I1028
sS'1031'
p2154
I1029
sS'1036'
p2155
I1034
sS'1037'
p2156
I1035
sS'1034'
p2157
I1032
sS'1035'
p2158
I1033
sS'4378'
p2159
I4376
sS'4379'
p2160
I4377
sS'4372'
p2161
I4370
sS'4373'
p2162
I4371
sS'4370'
p2163
I4368
sS'4371'
p2164
I4369
sS'4376'
p2165
I4374
sS'4377'
p2166
I4375
sS'4374'
p2167
I4372
sS'4375'
p2168
I4373
sS'4080'
p2169
I4078
sS'4081'
p2170
I4079
sS'4082'
p2171
I4080
sS'4083'
p2172
I4081
sS'4084'
p2173
I4082
sS'4085'
p2174
I4083
sS'4086'
p2175
I4084
sS'4087'
p2176
I4085
sS'4088'
p2177
I4086
sS'4089'
p2178
I4087
sS'5728'
p2179
I5726
sS'5729'
p2180
I5727
sS'5722'
p2181
I5720
sS'5723'
p2182
I5721
sS'5720'
p2183
I5718
sS'5721'
p2184
I5719
sS'5726'
p2185
I5724
sS'5727'
p2186
I5725
sS'5724'
p2187
I5722
sS'5725'
p2188
I5723
sS'2396'
p2189
I2394
sS'2397'
p2190
I2395
sS'2394'
p2191
I2392
sS'2395'
p2192
I2393
sS'2392'
p2193
I2390
sS'2393'
p2194
I2391
sS'2390'
p2195
I2388
sS'2391'
p2196
I2389
sS'2398'
p2197
I2396
sS'2399'
p2198
I2397
sS'1858'
p2199
I1856
sS'1859'
p2200
I1857
sS'5693'
p2201
I5691
sS'1850'
p2202
I1848
sS'1851'
p2203
I1849
sS'1852'
p2204
I1850
sS'1853'
p2205
I1851
sS'1854'
p2206
I1852
sS'1855'
p2207
I1853
sS'1856'
p2208
I1854
sS'1857'
p2209
I1855
sS'2172'
p2210
I2170
sS'2173'
p2211
I2171
sS'2170'
p2212
I2168
sS'2171'
p2213
I2169
sS'2176'
p2214
I2174
sS'2177'
p2215
I2175
sS'2174'
p2216
I2172
sS'2175'
p2217
I2173
sS'4967'
p2218
I4965
sS'4966'
p2219
I4964
sS'4965'
p2220
I4963
sS'2179'
p2221
I2177
sS'4963'
p2222
I4961
sS'4962'
p2223
I4960
sS'4961'
p2224
I4959
sS'4960'
p2225
I4958
sS'1421'
p2226
I1419
sS'5694'
p2227
I5692
sS'1420'
p2228
I1418
sS'5695'
p2229
I5693
sS'5430'
p2230
I5428
sS'1933'
p2231
I1931
sS'1932'
p2232
I1930
sS'1931'
p2233
I1929
sS'1930'
p2234
I1928
sS'5128'
p2235
I5126
sS'1936'
p2236
I1934
sS'1935'
p2237
I1933
sS'1934'
p2238
I1932
sS'3269'
p2239
I3267
sS'3268'
p2240
I3266
sS'1939'
p2241
I1937
sS'1938'
p2242
I1936
sS'5120'
p2243
I5118
sS'5121'
p2244
I5119
sS'5122'
p2245
I5120
sS'5123'
p2246
I5121
sS'5434'
p2247
I5432
sS'1426'
p2248
I1424
sS'1429'
p2249
I1427
sS'1428'
p2250
I1426
sS'3366'
p2251
I3364
sS'3367'
p2252
I3365
sS'605'
p2253
I603
sS'604'
p2254
I602
sS'607'
p2255
I605
sS'606'
p2256
I604
sS'601'
p2257
I599
sS'600'
p2258
I598
sS'603'
p2259
I601
sS'602'
p2260
I600
sS'1205'
p2261
I1203
sS'1204'
p2262
I1202
sS'1207'
p2263
I1205
sS'1206'
p2264
I1204
sS'609'
p2265
I607
sS'608'
p2266
I606
sS'1203'
p2267
I1201
sS'1202'
p2268
I1200
sS'1353'
p2269
I1351
sS'1352'
p2270
I1350
sS'1351'
p2271
I1349
sS'1350'
p2272
I1348
sS'461'
p2273
I459
sS'1356'
p2274
I1354
sS'463'
p2275
I461
sS'462'
p2276
I460
sS'5554'
p2277
I5552
sS'5552'
p2278
I5550
sS'4149'
p2279
I4147
sS'4148'
p2280
I4146
sS'4145'
p2281
I4143
sS'4144'
p2282
I4142
sS'4147'
p2283
I4145
sS'4146'
p2284
I4144
sS'4141'
p2285
I4139
sS'4140'
p2286
I4138
sS'4143'
p2287
I4141
sS'4142'
p2288
I4140
sS'3856'
p2289
I3854
sS'3857'
p2290
I3855
sS'3854'
p2291
I3852
sS'3855'
p2292
I3853
sS'3852'
p2293
I3850
sS'3853'
p2294
I3851
sS'3850'
p2295
I3848
sS'3851'
p2296
I3849
sS'3858'
p2297
I3856
sS'3859'
p2298
I3857
sS'1062'
p2299
I1060
sS'5919'
p2300
I5917
sS'5918'
p2301
I5916
sS'5915'
p2302
I5913
sS'5914'
p2303
I5912
sS'5917'
p2304
I5915
sS'5916'
p2305
I5914
sS'5911'
p2306
I5909
sS'5910'
p2307
I5908
sS'5913'
p2308
I5911
sS'5912'
p2309
I5910
sS'4558'
p2310
I4556
sS'4559'
p2311
I4557
sS'4556'
p2312
I4554
sS'4557'
p2313
I4555
sS'4554'
p2314
I4552
sS'4555'
p2315
I4553
sS'4552'
p2316
I4550
sS'4553'
p2317
I4551
sS'4550'
p2318
I4548
sS'4551'
p2319
I4549
sS'6077'
p2320
I6075
sS'6076'
p2321
I6074
sS'6075'
p2322
I6073
sS'6074'
p2323
I6072
sS'6073'
p2324
I6071
sS'6072'
p2325
I6070
sS'6071'
p2326
I6069
sS'6070'
p2327
I6068
sS'6079'
p2328
I6077
sS'6078'
p2329
I6076
sS'2617'
p2330
I2615
sS'2616'
p2331
I2614
sS'2615'
p2332
I2613
sS'2614'
p2333
I2612
sS'2613'
p2334
I2611
sS'2612'
p2335
I2610
sS'2611'
p2336
I2609
sS'2610'
p2337
I2608
sS'2619'
p2338
I2617
sS'2618'
p2339
I2616
sS'1186'
p2340
I1184
sS'1187'
p2341
I1185
sS'1184'
p2342
I1182
sS'740'
p2343
I738
sS'741'
p2344
I739
sS'742'
p2345
I740
sS'743'
p2346
I741
sS'744'
p2347
I742
sS'745'
p2348
I743
sS'746'
p2349
I744
sS'747'
p2350
I745
sS'748'
p2351
I746
sS'749'
p2352
I747
sS'1185'
p2353
I1183
sS'2949'
p2354
I2947
sS'2948'
p2355
I2946
sS'2947'
p2356
I2945
sS'2946'
p2357
I2944
sS'2945'
p2358
I2943
sS'2944'
p2359
I2942
sS'2943'
p2360
I2941
sS'2942'
p2361
I2940
sS'2941'
p2362
I2939
sS'2940'
p2363
I2938
sS'1050'
p2364
I1048
sS'1051'
p2365
I1049
sS'5355'
p2366
I5353
sS'1053'
p2367
I1051
sS'5353'
p2368
I5351
sS'5352'
p2369
I5350
sS'5351'
p2370
I5349
sS'5350'
p2371
I5348
sS'1058'
p2372
I1056
sS'1059'
p2373
I1057
sS'5359'
p2374
I5357
sS'5358'
p2375
I5356
sS'4310'
p2376
I4308
sS'4311'
p2377
I4309
sS'4312'
p2378
I4310
sS'4313'
p2379
I4311
sS'4314'
p2380
I4312
sS'4315'
p2381
I4313
sS'4316'
p2382
I4314
sS'4317'
p2383
I4315
sS'4318'
p2384
I4316
sS'4319'
p2385
I4317
sS'1180'
p2386
I1178
sS'3119'
p2387
I3117
sS'3118'
p2388
I3116
sS'3117'
p2389
I3115
sS'3116'
p2390
I3114
sS'3115'
p2391
I3113
sS'3114'
p2392
I3112
sS'3113'
p2393
I3111
sS'3112'
p2394
I3110
sS'3111'
p2395
I3109
sS'3110'
p2396
I3108
sS'5795'
p2397
I5793
sS'1181'
p2398
I1179
sS'5740'
p2399
I5738
sS'5741'
p2400
I5739
sS'5742'
p2401
I5740
sS'5743'
p2402
I5741
sS'5744'
p2403
I5742
sS'5745'
p2404
I5743
sS'5746'
p2405
I5744
sS'5747'
p2406
I5745
sS'5748'
p2407
I5746
sS'5749'
p2408
I5747
sS'5267'
p2409
I5265
sS'5266'
p2410
I5264
sS'1702'
p2411
I1700
sS'1703'
p2412
I1701
sS'5263'
p2413
I5261
sS'5262'
p2414
I5260
sS'5261'
p2415
I5259
sS'5260'
p2416
I5258
sS'5794'
p2417
I5792
sS'2137'
p2418
I2135
sS'7'
p2419
I6
sS'2134'
p2420
I2132
sS'2135'
p2421
I2133
sS'2378'
p2422
I2376
sS'2379'
p2423
I2377
sS'2374'
p2424
I2372
sS'2375'
p2425
I2373
sS'2376'
p2426
I2374
sS'2377'
p2427
I2375
sS'2370'
p2428
I2368
sS'2371'
p2429
I2369
sS'2372'
p2430
I2370
sS'2373'
p2431
I2371
sS'1876'
p2432
I1874
sS'1877'
p2433
I1875
sS'1874'
p2434
I1872
sS'1875'
p2435
I1873
sS'1872'
p2436
I1870
sS'1873'
p2437
I1871
sS'1870'
p2438
I1868
sS'1871'
p2439
I1869
sS'2133'
p2440
I2131
sS'1878'
p2441
I1876
sS'1879'
p2442
I1877
sS'4945'
p2443
I4943
sS'4944'
p2444
I4942
sS'4947'
p2445
I4945
sS'4946'
p2446
I4944
sS'4941'
p2447
I4939
sS'4940'
p2448
I4938
sS'4943'
p2449
I4941
sS'4942'
p2450
I4940
sS'4949'
p2451
I4947
sS'4948'
p2452
I4946
sS'2118'
p2453
I2116
sS'2119'
p2454
I2117
sS'2110'
p2455
I2108
sS'2111'
p2456
I2109
sS'2112'
p2457
I2110
sS'2113'
p2458
I2111
sS'2114'
p2459
I2112
sS'2115'
p2460
I2113
sS'2116'
p2461
I2114
sS'2117'
p2462
I2115
sS'1919'
p2463
I1917
sS'1918'
p2464
I1916
sS'5108'
p2465
I5106
sS'5109'
p2466
I5107
sS'3289'
p2467
I3287
sS'3288'
p2468
I3286
sS'5102'
p2469
I5100
sS'5103'
p2470
I5101
sS'5100'
p2471
I5098
sS'5101'
p2472
I5099
sS'5106'
p2473
I5104
sS'3282'
p2474
I3280
sS'5104'
p2475
I5102
sS'3280'
p2476
I3278
sS'883'
p2477
I881
sS'882'
p2478
I880
sS'881'
p2479
I879
sS'880'
p2480
I878
sS'887'
p2481
I885
sS'886'
p2482
I884
sS'885'
p2483
I883
sS'884'
p2484
I882
sS'889'
p2485
I887
sS'888'
p2486
I886
sS'5245'
p2487
I5243
sS'5792'
p2488
I5790
sS'1269'
p2489
I1267
sS'1268'
p2490
I1266
sS'669'
p2491
I667
sS'668'
p2492
I666
sS'1263'
p2493
I1261
sS'1262'
p2494
I1260
sS'665'
p2495
I663
sS'664'
p2496
I662
sS'663'
p2497
I661
sS'662'
p2498
I660
sS'1265'
p2499
I1263
sS'1264'
p2500
I1262
sS'1911'
p2501
I1909
sS'1910'
p2502
I1908
sS'1913'
p2503
I1911
sS'3284'
p2504
I3282
sS'3283'
p2505
I3281
sS'5107'
p2506
I5105
sS'3281'
p2507
I3279
sS'5105'
p2508
I5103
sS'6124'
p2509
I6122
sS'4129'
p2510
I4127
sS'4128'
p2511
I4126
sS'4123'
p2512
I4121
sS'4122'
p2513
I4120
sS'4121'
p2514
I4119
sS'4120'
p2515
I4118
sS'4127'
p2516
I4125
sS'4126'
p2517
I4124
sS'4125'
p2518
I4123
sS'4124'
p2519
I4122
sS'5689'
p2520
I5687
sS'5688'
p2521
I5686
sS'5685'
p2522
I5683
sS'5684'
p2523
I5682
sS'5687'
p2524
I5685
sS'5686'
p2525
I5684
sS'5681'
p2526
I5679
sS'5680'
p2527
I5678
sS'5683'
p2528
I5681
sS'5682'
p2529
I5680
sS'5979'
p2530
I5977
sS'5978'
p2531
I5976
sS'5973'
p2532
I5971
sS'5972'
p2533
I5970
sS'5971'
p2534
I5969
sS'5970'
p2535
I5968
sS'5977'
p2536
I5975
sS'5976'
p2537
I5974
sS'5975'
p2538
I5973
sS'5974'
p2539
I5972
sS'2587'
p2540
I2585
sS'2586'
p2541
I2584
sS'2585'
p2542
I2583
sS'2584'
p2543
I2582
sS'2583'
p2544
I2581
sS'2582'
p2545
I2580
sS'2581'
p2546
I2579
sS'2580'
p2547
I2578
sS'2589'
p2548
I2587
sS'2588'
p2549
I2586
sS'280'
p2550
I278
sS'6059'
p2551
I6057
sS'6058'
p2552
I6056
sS'6055'
p2553
I6053
sS'6054'
p2554
I6052
sS'6057'
p2555
I6055
sS'286'
p2556
I284
sS'6051'
p2557
I6049
sS'6050'
p2558
I6048
sS'6053'
p2559
I6051
sS'6052'
p2560
I6050
sS'2639'
p2561
I2637
sS'2638'
p2562
I2636
sS'2635'
p2563
I2633
sS'2634'
p2564
I2632
sS'2637'
p2565
I2635
sS'2636'
p2566
I2634
sS'2631'
p2567
I2629
sS'2630'
p2568
I2628
sS'2633'
p2569
I2631
sS'2632'
p2570
I2630
sS'3544'
p2571
I3542
sS'3545'
p2572
I3543
sS'3546'
p2573
I3544
sS'3547'
p2574
I3545
sS'3540'
p2575
I3538
sS'3541'
p2576
I3539
sS'3542'
p2577
I3540
sS'3543'
p2578
I3541
sS'3548'
p2579
I3546
sS'3549'
p2580
I3547
sS'2965'
p2581
I2963
sS'2964'
p2582
I2962
sS'2967'
p2583
I2965
sS'2966'
p2584
I2964
sS'2961'
p2585
I2959
sS'2960'
p2586
I2958
sS'2963'
p2587
I2961
sS'2962'
p2588
I2960
sS'762'
p2589
I760
sS'763'
p2590
I761
sS'760'
p2591
I758
sS'761'
p2592
I759
sS'2969'
p2593
I2967
sS'2968'
p2594
I2966
sS'764'
p2595
I762
sS'765'
p2596
I763
sS'5379'
p2597
I5377
sS'5378'
p2598
I5376
sS'1078'
p2599
I1076
sS'1079'
p2600
I1077
sS'5375'
p2601
I5373
sS'5374'
p2602
I5372
sS'5377'
p2603
I5375
sS'1075'
p2604
I1073
sS'5371'
p2605
I5369
sS'5370'
p2606
I5368
sS'5373'
p2607
I5371
sS'1071'
p2608
I1069
sS'5583'
p2609
I5581
sS'4338'
p2610
I4336
sS'4339'
p2611
I4337
sS'4336'
p2612
I4334
sS'4337'
p2613
I4335
sS'4334'
p2614
I4332
sS'4335'
p2615
I4333
sS'4332'
p2616
I4330
sS'4333'
p2617
I4331
sS'4330'
p2618
I4328
sS'4331'
p2619
I4329
sS'3135'
p2620
I3133
sS'5182'
p2621
I5180
sS'3137'
p2622
I3135
sS'3136'
p2623
I3134
sS'3131'
p2624
I3129
sS'3130'
p2625
I3128
sS'3133'
p2626
I3131
sS'3132'
p2627
I3130
sS'3139'
p2628
I3137
sS'3138'
p2629
I3136
sS'1533'
p2630
I1531
sS'5183'
p2631
I5181
sS'5180'
p2632
I5178
sS'5768'
p2633
I5766
sS'5769'
p2634
I5767
sS'5766'
p2635
I5764
sS'5767'
p2636
I5765
sS'5764'
p2637
I5762
sS'5765'
p2638
I5763
sS'5762'
p2639
I5760
sS'5763'
p2640
I5761
sS'5760'
p2641
I5758
sS'5761'
p2642
I5759
sS'1531'
p2643
I1529
sS'5186'
p2644
I5184
sS'2256'
p2645
I2254
sS'5187'
p2646
I5185
sS'2978'
p2647
I2976
sS'2979'
p2648
I2977
sS'2250'
p2649
I2248
sS'5185'
p2650
I5183
sS'2974'
p2651
I2972
sS'2975'
p2652
I2973
sS'1043'
p2653
I1041
sS'4570'
p2654
I4568
sS'1042'
p2655
I1040
sS'5360'
p2656
I5358
sS'1040'
p2657
I1038
sS'5366'
p2658
I5364
sS'5367'
p2659
I5365
sS'4571'
p2660
I4569
sS'5364'
p2661
I5362
sS'5365'
p2662
I5363
sS'2358'
p2663
I2356
sS'2359'
p2664
I2357
sS'2352'
p2665
I2350
sS'2353'
p2666
I2351
sS'2350'
p2667
I2348
sS'2351'
p2668
I2349
sS'2356'
p2669
I2354
sS'5368'
p2670
I5366
sS'2354'
p2671
I2352
sS'2355'
p2672
I2353
sS'5369'
p2673
I5367
sS'1898'
p2674
I1896
sS'1899'
p2675
I1897
sS'3739'
p2676
I3737
sS'3738'
p2677
I3736
sS'3737'
p2678
I3735
sS'3736'
p2679
I3734
sS'3735'
p2680
I3733
sS'3734'
p2681
I3732
sS'3733'
p2682
I3731
sS'1891'
p2683
I1889
sS'3731'
p2684
I3729
sS'3730'
p2685
I3728
sS'4691'
p2686
I4689
sS'4690'
p2687
I4688
sS'4693'
p2688
I4691
sS'4692'
p2689
I4690
sS'4695'
p2690
I4693
sS'4694'
p2691
I4692
sS'4925'
p2692
I4923
sS'4696'
p2693
I4694
sS'4699'
p2694
I4697
sS'4698'
p2695
I4696
sS'4929'
p2696
I4927
sS'4928'
p2697
I4926
sS'2138'
p2698
I2136
sS'2139'
p2699
I2137
sS'5160'
p2700
I5158
sS'5161'
p2701
I5159
sS'5162'
p2702
I5160
sS'5163'
p2703
I5161
sS'5164'
p2704
I5162
sS'5165'
p2705
I5163
sS'5166'
p2706
I5164
sS'4801'
p2707
I4799
sS'5168'
p2708
I5166
sS'5169'
p2709
I5167
sS'2787'
p2710
I2785
sS'2786'
p2711
I2784
sS'2781'
p2712
I2779
sS'2780'
p2713
I2778
sS'2783'
p2714
I2781
sS'2782'
p2715
I2780
sS'667'
p2716
I665
sS'666'
p2717
I664
sS'1261'
p2718
I1259
sS'1799'
p2719
I1797
sS'1798'
p2720
I1796
sS'1793'
p2721
I1791
sS'1267'
p2722
I1265
sS'1791'
p2723
I1789
sS'1790'
p2724
I1788
sS'1797'
p2725
I1795
sS'1796'
p2726
I1794
sS'1795'
p2727
I1793
sS'1794'
p2728
I1792
sS'661'
p2729
I659
sS'660'
p2730
I658
sS'2074'
p2731
I2072
sS'1025'
p2732
I1023
sS'5345'
p2733
I5343
sS'1241'
p2734
I1239
sS'3093'
p2735
I3091
sS'3090'
p2736
I3088
sS'3091'
p2737
I3089
sS'3096'
p2738
I3094
sS'3097'
p2739
I3095
sS'3094'
p2740
I3092
sS'1530'
p2741
I1528
sS'1249'
p2742
I1247
sS'648'
p2743
I646
sS'3098'
p2744
I3096
sS'3099'
p2745
I3097
sS'5346'
p2746
I5344
sS'1539'
p2747
I1537
sS'1538'
p2748
I1536
sS'4101'
p2749
I4099
sS'4100'
p2750
I4098
sS'4103'
p2751
I4101
sS'4102'
p2752
I4100
sS'4105'
p2753
I4103
sS'4104'
p2754
I4102
sS'4107'
p2755
I4105
sS'4106'
p2756
I4104
sS'4109'
p2757
I4107
sS'4108'
p2758
I4106
sS'3898'
p2759
I3896
sS'3899'
p2760
I3897
sS'3892'
p2761
I3890
sS'3893'
p2762
I3891
sS'3890'
p2763
I3888
sS'3891'
p2764
I3889
sS'3896'
p2765
I3894
sS'3897'
p2766
I3895
sS'3894'
p2767
I3892
sS'3895'
p2768
I3893
sS'5341'
p2769
I5339
sS'5951'
p2770
I5949
sS'5950'
p2771
I5948
sS'5953'
p2772
I5951
sS'5952'
p2773
I5950
sS'5955'
p2774
I5953
sS'5954'
p2775
I5952
sS'5957'
p2776
I5955
sS'5956'
p2777
I5954
sS'5959'
p2778
I5957
sS'5958'
p2779
I5956
sS'1454'
p2780
I1452
sS'1991'
p2781
I1989
sS'1455'
p2782
I1453
sS'5774'
p2783
I5772
sS'6039'
p2784
I6037
sS'6038'
p2785
I6036
sS'6033'
p2786
I6031
sS'6032'
p2787
I6030
sS'6031'
p2788
I6029
sS'6030'
p2789
I6028
sS'6037'
p2790
I6035
sS'6036'
p2791
I6034
sS'6035'
p2792
I6033
sS'6034'
p2793
I6032
sS'2659'
p2794
I2657
sS'2658'
p2795
I2656
sS'2653'
p2796
I2651
sS'2652'
p2797
I2650
sS'2651'
p2798
I2649
sS'2650'
p2799
I2648
sS'2657'
p2800
I2655
sS'2656'
p2801
I2654
sS'2655'
p2802
I2653
sS'2654'
p2803
I2652
sS'1452'
p2804
I1450
sS'3562'
p2805
I3560
sS'3563'
p2806
I3561
sS'3560'
p2807
I3558
sS'1453'
p2808
I1451
sS'3566'
p2809
I3564
sS'3567'
p2810
I3565
sS'3564'
p2811
I3562
sS'3565'
p2812
I3563
sS'3034'
p2813
I3032
sS'3568'
p2814
I3566
sS'3569'
p2815
I3567
sS'4484'
p2816
I4482
sS'4485'
p2817
I4483
sS'4486'
p2818
I4484
sS'4487'
p2819
I4485
sS'4480'
p2820
I4478
sS'4481'
p2821
I4479
sS'4482'
p2822
I4480
sS'4483'
p2823
I4481
sS'4488'
p2824
I4486
sS'4489'
p2825
I4487
sS'2903'
p2826
I2901
sS'2902'
p2827
I2900
sS'2901'
p2828
I2899
sS'2900'
p2829
I2898
sS'708'
p2830
I706
sS'709'
p2831
I707
sS'2905'
p2832
I2903
sS'147'
p2833
I146
sS'704'
p2834
I702
sS'705'
p2835
I703
sS'706'
p2836
I704
sS'2908'
p2837
I2906
sS'700'
p2838
I698
sS'701'
p2839
I699
sS'702'
p2840
I700
sS'703'
p2841
I701
sS'2486'
p2842
I2484
sS'5319'
p2843
I5317
sS'5318'
p2844
I5316
sS'5313'
p2845
I5311
sS'5312'
p2846
I5310
sS'5311'
p2847
I5309
sS'141'
p2848
I140
sS'5317'
p2849
I5315
sS'5316'
p2850
I5314
sS'5315'
p2851
I5313
sS'5314'
p2852
I5312
sS'2487'
p2853
I2485
sS'3214'
p2854
I3212
sS'1987'
p2855
I1985
sS'1984'
p2856
I1982
sS'3153'
p2857
I3151
sS'3152'
p2858
I3150
sS'3151'
p2859
I3149
sS'3150'
p2860
I3148
sS'3157'
p2861
I3155
sS'3156'
p2862
I3154
sS'3155'
p2863
I3153
sS'3154'
p2864
I3152
sS'1982'
p2865
I1980
sS'3159'
p2866
I3157
sS'3158'
p2867
I3156
sS'1983'
p2868
I1981
sS'1980'
p2869
I1978
sS'1981'
p2870
I1979
sS'1260'
p2871
I1258
sS'2482'
p2872
I2480
sS'1459'
p2873
I1457
sS'1266'
p2874
I1264
sS'2483'
p2875
I2481
sS'2480'
p2876
I2478
sS'568'
p2877
I566
sS'569'
p2878
I567
sS'2816'
p2879
I2814
sS'564'
p2880
I562
sS'565'
p2881
I563
sS'4714'
p2882
I4712
sS'4715'
p2883
I4713
sS'4716'
p2884
I4714
sS'4717'
p2885
I4715
sS'4710'
p2886
I4708
sS'4711'
p2887
I4709
sS'4712'
p2888
I4710
sS'2337'
p2889
I2335
sS'2338'
p2890
I2336
sS'2339'
p2891
I2337
sS'4718'
p2892
I4716
sS'4719'
p2893
I4717
sS'3715'
p2894
I3713
sS'3714'
p2895
I3712
sS'3717'
p2896
I3715
sS'3716'
p2897
I3714
sS'3711'
p2898
I3709
sS'3710'
p2899
I3708
sS'3713'
p2900
I3711
sS'3712'
p2901
I3710
sS'3719'
p2902
I3717
sS'3718'
p2903
I3716
sS'4909'
p2904
I4907
sS'4908'
p2905
I4906
sS'4679'
p2906
I4677
sS'4678'
p2907
I4676
sS'4901'
p2908
I4899
sS'4676'
p2909
I4674
sS'4903'
p2910
I4901
sS'4674'
p2911
I4672
sS'4673'
p2912
I4671
sS'4904'
p2913
I4902
sS'4671'
p2914
I4669
sS'4670'
p2915
I4668
sS'5148'
p2916
I5146
sS'5149'
p2917
I5147
sS'5146'
p2918
I5144
sS'5147'
p2919
I5145
sS'5144'
p2920
I5142
sS'5145'
p2921
I5143
sS'5142'
p2922
I5140
sS'5143'
p2923
I5141
sS'5140'
p2924
I5138
sS'5141'
p2925
I5139
sS'120'
p2926
I119
sS'121'
p2927
I120
sS'122'
p2928
I121
sS'123'
p2929
I122
sS'124'
p2930
I123
sS'125'
p2931
I124
sS'126'
p2932
I125
sS'127'
p2933
I126
sS'128'
p2934
I127
sS'129'
p2935
I128
sS'1188'
p2936
I1186
sS'1189'
p2937
I1187
sS'3377'
p2938
I3375
sS'3376'
p2939
I3374
sS'3375'
p2940
I3373
sS'3374'
p2941
I3372
sS'3373'
p2942
I3371
sS'3372'
p2943
I3370
sS'3371'
p2944
I3369
sS'3370'
p2945
I3368
sS'1997'
p2946
I1995
sS'3393'
p2947
I3391
sS'1519'
p2948
I1517
sS'1518'
p2949
I1516
sS'3392'
p2950
I3390
sS'1515'
p2951
I1513
sS'1514'
p2952
I1512
sS'1517'
p2953
I1515
sS'1516'
p2954
I1514
sS'1511'
p2955
I1509
sS'1510'
p2956
I1508
sS'1513'
p2957
I1511
sS'1512'
p2958
I1510
sS'3395'
p2959
I3393
sS'3394'
p2960
I3392
sS'3397'
p2961
I3395
sS'3396'
p2962
I3394
sS'263'
p2963
I261
sS'262'
p2964
I260
sS'261'
p2965
I259
sS'260'
p2966
I258
sS'267'
p2967
I265
sS'266'
p2968
I264
sS'265'
p2969
I263
sS'264'
p2970
I262
sS'269'
p2971
I267
sS'268'
p2972
I266
sS'6011'
p2973
I6009
sS'6010'
p2974
I6008
sS'6013'
p2975
I6011
sS'6012'
p2976
I6010
sS'6015'
p2977
I6013
sS'6014'
p2978
I6012
sS'6017'
p2979
I6015
sS'6016'
p2980
I6014
sS'6019'
p2981
I6017
sS'6018'
p2982
I6016
sS'988'
p2983
I986
sS'989'
p2984
I987
sS'982'
p2985
I980
sS'983'
p2986
I981
sS'980'
p2987
I978
sS'981'
p2988
I979
sS'986'
p2989
I984
sS'987'
p2990
I985
sS'984'
p2991
I982
sS'985'
p2992
I983
sS'1388'
p2993
I1386
sS'1389'
p2994
I1387
sS'3508'
p2995
I3506
sS'3509'
p2996
I3507
sS'5089'
p2997
I5087
sS'5088'
p2998
I5086
sS'5083'
p2999
I5081
sS'5082'
p3000
I5080
sS'5081'
p3001
I5079
sS'5080'
p3002
I5078
sS'5087'
p3003
I5085
sS'5086'
p3004
I5084
sS'5085'
p3005
I5083
sS'5084'
p3006
I5082
sS'2671'
p3007
I2669
sS'2670'
p3008
I2668
sS'2673'
p3009
I2671
sS'2672'
p3010
I2670
sS'2675'
p3011
I2673
sS'2674'
p3012
I2672
sS'2677'
p3013
I2675
sS'2676'
p3014
I2674
sS'2679'
p3015
I2677
sS'2678'
p3016
I2676
sS'1209'
p3017
I1207
sS'2929'
p3018
I2927
sS'2928'
p3019
I2926
sS'2921'
p3020
I2919
sS'2920'
p3021
I2918
sS'2923'
p3022
I2921
sS'2922'
p3023
I2920
sS'2925'
p3024
I2923
sS'2924'
p3025
I2922
sS'2927'
p3026
I2925
sS'2926'
p3027
I2924
sS'5331'
p3028
I5329
sS'5330'
p3029
I5328
sS'5333'
p3030
I5331
sS'5332'
p3031
I5330
sS'5335'
p3032
I5333
sS'5334'
p3033
I5332
sS'5337'
p3034
I5335
sS'5336'
p3035
I5334
sS'1208'
p3036
I1206
sS'5338'
p3037
I5336
sS'3179'
p3038
I3177
sS'3178'
p3039
I3176
sS'2037'
p3040
I2035
sS'3171'
p3041
I3169
sS'3170'
p3042
I3168
sS'3173'
p3043
I3171
sS'3172'
p3044
I3170
sS'3175'
p3045
I3173
sS'3174'
p3046
I3172
sS'3177'
p3047
I3175
sS'3176'
p3048
I3174
sS'726'
p3049
I724
sS'727'
p3050
I725
sS'724'
p3051
I722
sS'725'
p3052
I723
sS'722'
p3053
I720
sS'723'
p3054
I721
sS'720'
p3055
I718
sS'721'
p3056
I719
sS'728'
p3057
I726
sS'729'
p3058
I727
sS'1164'
p3059
I1162
sS'1165'
p3060
I1163
sS'1166'
p3061
I1164
sS'1167'
p3062
I1165
sS'1160'
p3063
I1158
sS'1161'
p3064
I1159
sS'1162'
p3065
I1160
sS'1163'
p3066
I1161
sS'1168'
p3067
I1166
sS'1169'
p3068
I1167
sS'2035'
p3069
I2033
sS'472'
p3070
I470
sS'473'
p3071
I471
sS'2034'
p3072
I2032
sS'1380'
p3073
I1378
sS'471'
p3074
I469
sS'476'
p3075
I474
sS'2785'
p3076
I2783
sS'477'
p3077
I475
sS'1713'
p3078
I1711
sS'474'
p3079
I472
sS'1712'
p3080
I1710
sS'2033'
p3081
I2031
sS'1711'
p3082
I1709
sS'1381'
p3083
I1379
sS'1710'
p3084
I1708
sS'2784'
p3085
I2782
sS'1716'
p3086
I1714
sS'1715'
p3087
I1713
sS'2032'
p3088
I2030
sS'1714'
p3089
I1712
sS'1368'
p3090
I1366
sS'3728'
p3091
I3726
sS'1369'
p3092
I1367
sS'1719'
p3093
I1717
sS'1864'
p3094
I1862
sS'1718'
p3095
I1716
sS'2031'
p3096
I2029
sS'1869'
p3097
I1867
sS'1868'
p3098
I1866
sS'2030'
p3099
I2028
sS'4930'
p3100
I4928
sS'4931'
p3101
I4929
sS'4932'
p3102
I4930
sS'4933'
p3103
I4931
sS'4934'
p3104
I4932
sS'4935'
p3105
I4933
sS'4732'
p3106
I4730
sS'4733'
p3107
I4731
sS'4730'
p3108
I4728
sS'4731'
p3109
I4729
sS'4736'
p3110
I4734
sS'4737'
p3111
I4735
sS'2318'
p3112
I2316
sS'2319'
p3113
I2317
sS'2316'
p3114
I2314
sS'2317'
p3115
I2315
sS'2314'
p3116
I2312
sS'2315'
p3117
I2313
sS'2312'
p3118
I2310
sS'2313'
p3119
I2311
sS'2310'
p3120
I2308
sS'2311'
p3121
I2309
sS'5854'
p3122
I5852
sS'5855'
p3123
I5853
sS'5856'
p3124
I5854
sS'5857'
p3125
I5855
sS'5850'
p3126
I5848
sS'5851'
p3127
I5849
sS'5852'
p3128
I5850
sS'5853'
p3129
I5851
sS'5858'
p3130
I5856
sS'5859'
p3131
I5857
sS'3773'
p3132
I3771
sS'3772'
p3133
I3770
sS'3771'
p3134
I3769
sS'3770'
p3135
I3768
sS'3777'
p3136
I3775
sS'3776'
p3137
I3774
sS'3775'
p3138
I3773
sS'3774'
p3139
I3772
sS'3779'
p3140
I3777
sS'3778'
p3141
I3776
sS'4655'
p3142
I4653
sS'4654'
p3143
I4652
sS'4657'
p3144
I4655
sS'4656'
p3145
I4654
sS'4651'
p3146
I4649
sS'4650'
p3147
I4648
sS'4653'
p3148
I4651
sS'4652'
p3149
I4650
sS'4659'
p3150
I4657
sS'4658'
p3151
I4656
sS'108'
p3152
I107
sS'109'
p3153
I108
sS'102'
p3154
I101
sS'103'
p3155
I102
sS'100'
p3156
I99
sS'101'
p3157
I100
sS'106'
p3158
I105
sS'107'
p3159
I106
sS'104'
p3160
I103
sS'105'
p3161
I104
sS'6056'
p3162
I6054
sS'6204'
p3163
I6202
sS'6205'
p3164
I6203
sS'6206'
p3165
I6204
sS'6207'
p3166
I6205
sS'6200'
p3167
I6198
sS'6201'
p3168
I6199
sS'6202'
p3169
I6200
sS'6203'
p3170
I6201
sS'6208'
p3171
I6206
sS'6209'
p3172
I6207
sS'1759'
p3173
I1757
sS'1758'
p3174
I1756
sS'1757'
p3175
I1755
sS'1756'
p3176
I1754
sS'1755'
p3177
I1753
sS'1754'
p3178
I1752
sS'1753'
p3179
I1751
sS'1752'
p3180
I1750
sS'1751'
p3181
I1749
sS'1750'
p3182
I1748
sS'1285'
p3183
I1283
sS'1284'
p3184
I1282
sS'1287'
p3185
I1285
sS'1286'
p3186
I1284
sS'1281'
p3187
I1279
sS'1280'
p3188
I1278
sS'1283'
p3189
I1281
sS'1282'
p3190
I1280
sS'1289'
p3191
I1287
sS'1288'
p3192
I1286
sS'1579'
p3193
I1577
sS'1578'
p3194
I1576
sS'689'
p3195
I687
sS'688'
p3196
I686
sS'685'
p3197
I683
sS'684'
p3198
I682
sS'687'
p3199
I685
sS'686'
p3200
I684
sS'681'
p3201
I679
sS'680'
p3202
I678
sS'683'
p3203
I681
sS'682'
p3204
I680
sS'1240'
p3205
I1238
sS'5629'
p3206
I5627
sS'5628'
p3207
I5626
sS'5627'
p3208
I5625
sS'1243'
p3209
I1241
sS'5625'
p3210
I5623
sS'5624'
p3211
I5622
sS'5623'
p3212
I5621
sS'5622'
p3213
I5620
sS'5621'
p3214
I5619
sS'5620'
p3215
I5618
sS'1242'
p3216
I1240
sS'5995'
p3217
I5993
sS'5994'
p3218
I5992
sS'5997'
p3219
I5995
sS'5996'
p3220
I5994
sS'5991'
p3221
I5989
sS'5990'
p3222
I5988
sS'5993'
p3223
I5991
sS'5992'
p3224
I5990
sS'5999'
p3225
I5997
sS'5998'
p3226
I5996
sS'1244'
p3227
I1242
sS'1246'
p3228
I1244
sS'245'
p3229
I243
sS'244'
p3230
I242
sS'247'
p3231
I245
sS'246'
p3232
I244
sS'241'
p3233
I239
sS'240'
p3234
I238
sS'243'
p3235
I241
sS'242'
p3236
I240
sS'249'
p3237
I247
sS'248'
p3238
I246
sS'3698'
p3239
I3696
sS'3699'
p3240
I3697
sS'1366'
p3241
I1364
sS'3690'
p3242
I3688
sS'3691'
p3243
I3689
sS'3692'
p3244
I3690
sS'3693'
p3245
I3691
sS'3694'
p3246
I3692
sS'3695'
p3247
I3693
sS'3696'
p3248
I3694
sS'3697'
p3249
I3695
sS'2156'
p3250
I2154
sS'1367'
p3251
I1365
sS'3526'
p3252
I3524
sS'3527'
p3253
I3525
sS'3524'
p3254
I3522
sS'3525'
p3255
I3523
sS'3522'
p3256
I3520
sS'3523'
p3257
I3521
sS'3520'
p3258
I3518
sS'3521'
p3259
I3519
sS'3528'
p3260
I3526
sS'3529'
p3261
I3527
sS'1364'
p3262
I1362
sS'338'
p3263
I336
sS'2150'
p3264
I2148
sS'2699'
p3265
I2697
sS'2698'
p3266
I2696
sS'2697'
p3267
I2695
sS'2696'
p3268
I2694
sS'2695'
p3269
I2693
sS'2694'
p3270
I2692
sS'2693'
p3271
I2691
sS'2692'
p3272
I2690
sS'2691'
p3273
I2689
sS'2690'
p3274
I2688
sS'1362'
p3275
I1360
sS'2152'
p3276
I2150
sS'1363'
p3277
I1361
sS'2153'
p3278
I2151
sS'1360'
p3279
I1358
sS'1361'
p3280
I1359
sS'1142'
p3281
I1140
sS'1143'
p3282
I1141
sS'1140'
p3283
I1138
sS'1141'
p3284
I1139
sS'1146'
p3285
I1144
sS'1147'
p3286
I1145
sS'1144'
p3287
I1142
sS'1145'
p3288
I1143
sS'1148'
p3289
I1146
sS'1149'
p3290
I1147
sS'768'
p3291
I766
sS'769'
p3292
I767
sS'336'
p3293
I334
sS'766'
p3294
I764
sS'767'
p3295
I765
sS'4282'
p3296
I4280
sS'4283'
p3297
I4281
sS'4280'
p3298
I4278
sS'4281'
p3299
I4279
sS'4286'
p3300
I4284
sS'4287'
p3301
I4285
sS'4284'
p3302
I4282
sS'4285'
p3303
I4283
sS'4288'
p3304
I4286
sS'4289'
p3305
I4287
sS'380'
p3306
I378
sS'381'
p3307
I379
sS'382'
p3308
I380
sS'383'
p3309
I381
sS'384'
p3310
I382
sS'385'
p3311
I383
sS'386'
p3312
I384
sS'387'
p3313
I385
sS'388'
p3314
I386
sS'389'
p3315
I387
sS'4758'
p3316
I4756
sS'4759'
p3317
I4757
sS'4750'
p3318
I4748
sS'4751'
p3319
I4749
sS'4752'
p3320
I4750
sS'4753'
p3321
I4751
sS'4754'
p3322
I4752
sS'4755'
p3323
I4753
sS'4756'
p3324
I4754
sS'4757'
p3325
I4755
sS'5872'
p3326
I5870
sS'1076'
p3327
I1074
sS'5870'
p3328
I5868
sS'5871'
p3329
I5869
sS'5876'
p3330
I5874
sS'5877'
p3331
I5875
sS'5874'
p3332
I5872
sS'1077'
p3333
I1075
sS'5878'
p3334
I5876
sS'5879'
p3335
I5877
sS'1074'
p3336
I1072
sS'3759'
p3337
I3757
sS'3758'
p3338
I3756
sS'5376'
p3339
I5374
sS'3751'
p3340
I3749
sS'3750'
p3341
I3748
sS'3753'
p3342
I3751
sS'3752'
p3343
I3750
sS'3755'
p3344
I3753
sS'3754'
p3345
I3752
sS'3757'
p3346
I3755
sS'3756'
p3347
I3754
sS'4633'
p3348
I4631
sS'2191'
p3349
I2189
sS'4631'
p3350
I4629
sS'4630'
p3351
I4628
sS'2194'
p3352
I2192
sS'2195'
p3353
I2193
sS'2196'
p3354
I2194
sS'2197'
p3355
I2195
sS'2198'
p3356
I2196
sS'2199'
p3357
I2197
sS'4639'
p3358
I4637
sS'4638'
p3359
I4636
sS'4813'
p3360
I4811
sS'4812'
p3361
I4810
sS'4811'
p3362
I4809
sS'4810'
p3363
I4808
sS'168'
p3364
I167
sS'169'
p3365
I168
sS'164'
p3366
I163
sS'165'
p3367
I164
sS'166'
p3368
I165
sS'167'
p3369
I166
sS'160'
p3370
I159
sS'161'
p3371
I160
sS'162'
p3372
I161
sS'163'
p3373
I162
sS'4815'
p3374
I4813
sS'4814'
p3375
I4812
sS'6194'
p3376
I6192
sS'6195'
p3377
I6193
sS'6196'
p3378
I6194
sS'6197'
p3379
I6195
sS'6190'
p3380
I6188
sS'6191'
p3381
I6189
sS'6192'
p3382
I6190
sS'6193'
p3383
I6191
sS'6198'
p3384
I6196
sS'6199'
p3385
I6197
sS'2734'
p3386
I2732
sS'2735'
p3387
I2733
sS'2736'
p3388
I2734
sS'2737'
p3389
I2735
sS'2730'
p3390
I2728
sS'2731'
p3391
I2729
sS'2732'
p3392
I2730
sS'2733'
p3393
I2731
sS'2738'
p3394
I2736
sS'2739'
p3395
I2737
sS'6222'
p3396
I6220
sS'6223'
p3397
I6221
sS'6220'
p3398
I6218
sS'6221'
p3399
I6219
sS'6226'
p3400
I6224
sS'6227'
p3401
I6225
sS'6224'
p3402
I6222
sS'6225'
p3403
I6223
sS'6228'
p3404
I6226
sS'6229'
p3405
I6227
sS'5558'
p3406
I5556
sS'3134'
p3407
I3132
sS'809'
p3408
I807
sS'808'
p3409
I806
sS'803'
p3410
I801
sS'802'
p3411
I800
sS'801'
p3412
I799
sS'800'
p3413
I798
sS'807'
p3414
I805
sS'806'
p3415
I804
sS'805'
p3416
I803
sS'804'
p3417
I802
sS'5274'
p3418
I5272
sS'5275'
p3419
I5273
sS'5276'
p3420
I5274
sS'1776'
p3421
I1774
sS'1771'
p3422
I1769
sS'5271'
p3423
I5269
sS'5272'
p3424
I5270
sS'1772'
p3425
I1770
sS'1779'
p3426
I1777
sS'1778'
p3427
I1776
sS'1551'
p3428
I1549
sS'1550'
p3429
I1548
sS'1553'
p3430
I1551
sS'1552'
p3431
I1550
sS'1555'
p3432
I1553
sS'3039'
p3433
I3037
sS'1557'
p3434
I1555
sS'1556'
p3435
I1554
sS'1559'
p3436
I1557
sS'1558'
p3437
I1556
sS'3036'
p3438
I3034
sS'3037'
p3439
I3035
sS'3030'
p3440
I3028
sS'3031'
p3441
I3029
sS'3032'
p3442
I3030
sS'3033'
p3443
I3031
sS'5605'
p3444
I5603
sS'5604'
p3445
I5602
sS'5607'
p3446
I5605
sS'5606'
p3447
I5604
sS'5601'
p3448
I5599
sS'5600'
p3449
I5598
sS'5603'
p3450
I5601
sS'5602'
p3451
I5600
sS'5609'
p3452
I5607
sS'5608'
p3453
I5606
sS'4697'
p3454
I4695
sS'229'
p3455
I227
sS'228'
p3456
I226
sS'227'
p3457
I225
sS'226'
p3458
I224
sS'225'
p3459
I223
sS'224'
p3460
I222
sS'223'
p3461
I221
sS'222'
p3462
I220
sS'221'
p3463
I219
sS'220'
p3464
I218
sS'2509'
p3465
I2507
sS'2508'
p3466
I2506
sS'2507'
p3467
I2505
sS'2506'
p3468
I2504
sS'2505'
p3469
I2503
sS'2504'
p3470
I2502
sS'2503'
p3471
I2501
sS'2502'
p3472
I2500
sS'2501'
p3473
I2499
sS'2500'
p3474
I2498
sS'5049'
p3475
I5047
sS'5048'
p3476
I5046
sS'5047'
p3477
I5045
sS'5046'
p3478
I5044
sS'5045'
p3479
I5043
sS'5044'
p3480
I5042
sS'5043'
p3481
I5041
sS'5042'
p3482
I5040
sS'5041'
p3483
I5039
sS'5040'
p3484
I5038
sS'2160'
p3485
I2158
sS'1256'
p3486
I1254
sS'1257'
p3487
I1255
sS'1254'
p3488
I1252
sS'1255'
p3489
I1253
sS'1520'
p3490
I1518
sS'1253'
p3491
I1251
sS'3207'
p3492
I3205
sS'1250'
p3493
I1248
sS'3206'
p3494
I3204
sS'1251'
p3495
I1249
sS'3205'
p3496
I3203
sS'5181'
p3497
I5179
sS'3203'
p3498
I3201
sS'3202'
p3499
I3200
sS'5184'
p3500
I5182
sS'1996'
p3501
I1994
sS'5188'
p3502
I5186
sS'1128'
p3503
I1126
sS'1129'
p3504
I1127
sS'5189'
p3505
I5187
sS'1120'
p3506
I1118
sS'1121'
p3507
I1119
sS'1122'
p3508
I1120
sS'1123'
p3509
I1121
sS'1124'
p3510
I1122
sS'1125'
p3511
I1123
sS'1126'
p3512
I1124
sS'1127'
p3513
I1125
sS'2864'
p3514
I2862
sS'2865'
p3515
I2863
sS'2868'
p3516
I2866
sS'2869'
p3517
I2867
sS'4776'
p3518
I4774
sS'4777'
p3519
I4775
sS'4774'
p3520
I4772
sS'4775'
p3521
I4773
sS'4772'
p3522
I4770
sS'4773'
p3523
I4771
sS'4770'
p3524
I4768
sS'4771'
p3525
I4769
sS'4778'
p3526
I4776
sS'4779'
p3527
I4777
sS'5818'
p3528
I5816
sS'5819'
p3529
I5817
sS'5810'
p3530
I5808
sS'5811'
p3531
I5809
sS'5812'
p3532
I5810
sS'5813'
p3533
I5811
sS'5814'
p3534
I5812
sS'5815'
p3535
I5813
sS'5816'
p3536
I5814
sS'5817'
p3537
I5815
sS'4619'
p3538
I4617
sS'4618'
p3539
I4616
sS'4611'
p3540
I4609
sS'4610'
p3541
I4608
sS'4613'
p3542
I4611
sS'4612'
p3543
I4610
sS'4615'
p3544
I4613
sS'4614'
p3545
I4612
sS'4617'
p3546
I4615
sS'4616'
p3547
I4614
sS'2705'
p3548
I2703
sS'2704'
p3549
I2702
sS'2707'
p3550
I2705
sS'146'
p3551
I145
sS'5458'
p3552
I5456
sS'144'
p3553
I143
sS'145'
p3554
I144
sS'142'
p3555
I141
sS'143'
p3556
I142
sS'140'
p3557
I139
sS'5459'
p3558
I5457
sS'4884'
p3559
I4882
sS'148'
p3560
I147
sS'149'
p3561
I148
sS'4886'
p3562
I4884
sS'2702'
p3563
I2700
sS'3092'
p3564
I3090
sS'3342'
p3565
I3340
sS'1190'
p3566
I1188
sS'5452'
p3567
I5450
sS'2712'
p3568
I2710
sS'2713'
p3569
I2711
sS'2710'
p3570
I2708
sS'2711'
p3571
I2709
sS'2716'
p3572
I2714
sS'2717'
p3573
I2715
sS'2714'
p3574
I2712
sS'2715'
p3575
I2713
sS'3346'
p3576
I3344
sS'2718'
p3577
I2716
sS'2719'
p3578
I2717
sS'3347'
p3579
I3345
sS'3344'
p3580
I3342
sS'3345'
p3581
I3343
sS'6248'
p3582
I6246
sS'6249'
p3583
I6247
sS'6240'
p3584
I6238
sS'6241'
p3585
I6239
sS'6242'
p3586
I6240
sS'6243'
p3587
I6241
sS'6244'
p3588
I6242
sS'6245'
p3589
I6243
sS'6246'
p3590
I6244
sS'6247'
p3591
I6245
sS'829'
p3592
I827
sS'828'
p3593
I826
sS'825'
p3594
I823
sS'824'
p3595
I822
sS'827'
p3596
I825
sS'826'
p3597
I824
sS'821'
p3598
I819
sS'820'
p3599
I818
sS'823'
p3600
I821
sS'822'
p3601
I820
sS'5252'
p3602
I5250
sS'5253'
p3603
I5251
sS'5250'
p3604
I5248
sS'5251'
p3605
I5249
sS'5256'
p3606
I5254
sS'5257'
p3607
I5255
sS'5254'
p3608
I5252
sS'5255'
p3609
I5253
sS'5258'
p3610
I5256
sS'5259'
p3611
I5257
sS'5942'
p3612
I5940
sS'3018'
p3613
I3016
sS'3019'
p3614
I3017
sS'3012'
p3615
I3010
sS'3013'
p3616
I3011
sS'3010'
p3617
I3008
sS'3011'
p3618
I3009
sS'3016'
p3619
I3014
sS'3017'
p3620
I3015
sS'3014'
p3621
I3012
sS'3015'
p3622
I3013
sS'4189'
p3623
I4187
sS'4188'
p3624
I4186
sS'4181'
p3625
I4179
sS'4180'
p3626
I4178
sS'4183'
p3627
I4181
sS'4182'
p3628
I4180
sS'4185'
p3629
I4183
sS'4184'
p3630
I4182
sS'4187'
p3631
I4185
sS'4186'
p3632
I4184
sS'5663'
p3633
I5661
sS'5662'
p3634
I5660
sS'5661'
p3635
I5659
sS'5660'
p3636
I5658
sS'5667'
p3637
I5665
sS'5666'
p3638
I5664
sS'5665'
p3639
I5663
sS'5664'
p3640
I5662
sS'5669'
p3641
I5667
sS'5668'
p3642
I5666
sS'11'
p3643
I10
sS'10'
p3644
I9
sS'13'
p3645
I12
sS'12'
p3646
I11
sS'15'
p3647
I14
sS'14'
p3648
I13
sS'17'
p3649
I16
sS'16'
p3650
I15
sS'19'
p3651
I18
sS'18'
p3652
I17
sS'3904'
p3653
I3902
sS'3905'
p3654
I3903
sS'3906'
p3655
I3904
sS'3907'
p3656
I3905
sS'3900'
p3657
I3898
sS'3901'
p3658
I3899
sS'3902'
p3659
I3900
sS'3903'
p3660
I3901
sS'3908'
p3661
I3906
sS'3909'
p3662
I3907
sS'201'
p3663
I200
sS'200'
p3664
I199
sS'203'
p3665
I201
sS'205'
p3666
I203
sS'204'
p3667
I202
sS'207'
p3668
I205
sS'206'
p3669
I204
sS'209'
p3670
I207
sS'208'
p3671
I206
sS'830'
p3672
I828
sS'831'
p3673
I829
sS'836'
p3674
I834
sS'837'
p3675
I835
sS'834'
p3676
I832
sS'835'
p3677
I833
sS'3658'
p3678
I3656
sS'3659'
p3679
I3657
sS'3654'
p3680
I3652
sS'3655'
p3681
I3653
sS'3656'
p3682
I3654
sS'3657'
p3683
I3655
sS'3650'
p3684
I3648
sS'3651'
p3685
I3649
sS'3652'
p3686
I3650
sS'3653'
p3687
I3651
sS'2525'
p3688
I2523
sS'2524'
p3689
I2522
sS'2527'
p3690
I2525
sS'2526'
p3691
I2524
sS'2521'
p3692
I2519
sS'2520'
p3693
I2518
sS'2523'
p3694
I2521
sS'2522'
p3695
I2520
sS'2529'
p3696
I2527
sS'2528'
p3697
I2526
sS'5065'
p3698
I5063
sS'5064'
p3699
I5062
sS'5067'
p3700
I5065
sS'5066'
p3701
I5064
sS'5061'
p3702
I5059
sS'5060'
p3703
I5058
sS'5063'
p3704
I5061
sS'5062'
p3705
I5060
sS'5069'
p3706
I5067
sS'5068'
p3707
I5066
sS'4408'
p3708
I4406
sS'4409'
p3709
I4407
sS'4404'
p3710
I4402
sS'4405'
p3711
I4403
sS'4406'
p3712
I4404
sS'4407'
p3713
I4405
sS'4400'
p3714
I4398
sS'4401'
p3715
I4399
sS'4402'
p3716
I4400
sS'4403'
p3717
I4401
sS'928'
p3718
I926
sS'929'
p3719
I927
sS'920'
p3720
I918
sS'921'
p3721
I919
sS'922'
p3722
I920
sS'923'
p3723
I921
sS'924'
p3724
I922
sS'925'
p3725
I923
sS'926'
p3726
I924
sS'927'
p3727
I925
sS'5393'
p3728
I5391
sS'5392'
p3729
I5390
sS'5391'
p3730
I5389
sS'5390'
p3731
I5388
sS'5397'
p3732
I5395
sS'5396'
p3733
I5394
sS'5395'
p3734
I5393
sS'5394'
p3735
I5392
sS'5399'
p3736
I5397
sS'5398'
p3737
I5396
sS'784'
p3738
I782
sS'785'
p3739
I783
sS'786'
p3740
I784
sS'787'
p3741
I785
sS'780'
p3742
I778
sS'781'
p3743
I779
sS'782'
p3744
I780
sS'783'
p3745
I781
sS'788'
p3746
I786
sS'789'
p3747
I787
sS'2357'
p3748
I2355
sS'1371'
p3749
I1369
sS'1370'
p3750
I1368
sS'1373'
p3751
I1371
sS'404'
p3752
I402
sS'403'
p3753
I401
sS'402'
p3754
I400
sS'401'
p3755
I399
sS'1376'
p3756
I1374
sS'2899'
p3757
I2897
sS'2898'
p3758
I2896
sS'2895'
p3759
I2893
sS'2894'
p3760
I2892
sS'2897'
p3761
I2895
sS'2896'
p3762
I2894
sS'2891'
p3763
I2889
sS'2890'
p3764
I2888
sS'2893'
p3765
I2891
sS'2892'
p3766
I2890
sS'1106'
p3767
I1104
sS'1107'
p3768
I1105
sS'1104'
p3769
I1102
sS'1105'
p3770
I1103
sS'1102'
p3771
I1100
sS'1103'
p3772
I1101
sS'1100'
p3773
I1098
sS'1727'
p3774
I1725
sS'1458'
p3775
I1456
sS'1724'
p3776
I1722
sS'1108'
p3777
I1106
sS'1109'
p3778
I1107
sS'1725'
p3779
I1723
sS'5241'
p3780
I5239
sS'5240'
p3781
I5238
sS'1894'
p3782
I1892
sS'5243'
p3783
I5241
sS'1895'
p3784
I1893
sS'5242'
p3785
I5240
sS'1896'
p3786
I1894
sS'1897'
p3787
I1895
sS'1890'
p3788
I1888
sS'1837'
p3789
I1835
sS'3732'
p3790
I3730
sS'1892'
p3791
I1890
sS'1893'
p3792
I1891
sS'2136'
p3793
I2134
sS'4922'
p3794
I4920
sS'4921'
p3795
I4919
sS'4920'
p3796
I4918
sS'4798'
p3797
I4796
sS'4799'
p3798
I4797
sS'4794'
p3799
I4792
sS'4795'
p3800
I4793
sS'4796'
p3801
I4794
sS'4797'
p3802
I4795
sS'4790'
p3803
I4788
sS'4791'
p3804
I4789
sS'4792'
p3805
I4790
sS'4926'
p3806
I4924
sS'5836'
p3807
I5834
sS'5837'
p3808
I5835
sS'5834'
p3809
I5832
sS'5835'
p3810
I5833
sS'5832'
p3811
I5830
sS'2130'
p3812
I2128
sS'5830'
p3813
I5828
sS'5831'
p3814
I5829
sS'2131'
p3815
I2129
sS'5838'
p3816
I5836
sS'5839'
p3817
I5837
sS'2668'
p3818
I2666
sS'4'
p3819
I3
sS'2778'
p3820
I2776
sS'2779'
p3821
I2777
sS'4899'
p3822
I4897
sS'4898'
p3823
I4896
sS'2770'
p3824
I2768
sS'2771'
p3825
I2769
sS'2772'
p3826
I2770
sS'4890'
p3827
I4888
sS'2774'
p3828
I2772
sS'2775'
p3829
I2773
sS'2776'
p3830
I2774
sS'2777'
p3831
I2775
sS'3286'
p3832
I3284
sS'6266'
p3833
I6264
sS'6267'
p3834
I6265
sS'6264'
p3835
I6262
sS'6265'
p3836
I6263
sS'6262'
p3837
I6260
sS'6263'
p3838
I6261
sS'6260'
p3839
I6258
sS'6261'
p3840
I6259
sS'5167'
p3841
I5165
sS'6268'
p3842
I6266
sS'6269'
p3843
I6267
sS'847'
p3844
I845
sS'846'
p3845
I844
sS'3465'
p3846
I3463
sS'844'
p3847
I842
sS'843'
p3848
I841
sS'842'
p3849
I840
sS'841'
p3850
I839
sS'840'
p3851
I838
sS'849'
p3852
I847
sS'848'
p3853
I846
sS'4902'
p3854
I4900
sS'2406'
p3855
I2404
sS'4905'
p3856
I4903
sS'2407'
p3857
I2405
sS'1739'
p3858
I1737
sS'1738'
p3859
I1736
sS'1731'
p3860
I1729
sS'1730'
p3861
I1728
sS'1733'
p3862
I1731
sS'5233'
p3863
I5231
sS'5234'
p3864
I5232
sS'5235'
p3865
I5233
sS'1737'
p3866
I1735
sS'1736'
p3867
I1734
sS'3070'
p3868
I3068
sS'3071'
p3869
I3069
sS'1597'
p3870
I1595
sS'1596'
p3871
I1594
sS'3074'
p3872
I3072
sS'3075'
p3873
I3073
sS'1593'
p3874
I1591
sS'3077'
p3875
I3075
sS'3078'
p3876
I3076
sS'3079'
p3877
I3077
sS'1599'
p3878
I1597
sS'1598'
p3879
I1596
sS'4906'
p3880
I4904
sS'2403'
p3881
I2401
sS'5649'
p3882
I5647
sS'5648'
p3883
I5646
sS'5641'
p3884
I5639
sS'5640'
p3885
I5638
sS'5643'
p3886
I5641
sS'5642'
p3887
I5640
sS'5645'
p3888
I5643
sS'5644'
p3889
I5642
sS'5647'
p3890
I5645
sS'5646'
p3891
I5644
sS'4826'
p3892
I4824
sS'489'
p3893
I487
sS'488'
p3894
I486
sS'487'
p3895
I485
sS'486'
p3896
I484
sS'485'
p3897
I483
sS'484'
p3898
I482
sS'483'
p3899
I481
sS'482'
p3900
I480
sS'481'
p3901
I479
sS'480'
p3902
I478
sS'4827'
p3903
I4825
sS'3922'
p3904
I3920
sS'3923'
p3905
I3921
sS'3920'
p3906
I3918
sS'3921'
p3907
I3919
sS'3926'
p3908
I3924
sS'3927'
p3909
I3925
sS'3924'
p3910
I3922
sS'3925'
p3911
I3923
sS'3928'
p3912
I3926
sS'3929'
p3913
I3927
sS'5655'
p3914
I5653
sS'453'
p3915
I451
sS'6099'
p3916
I6097
sS'6098'
p3917
I6096
sS'6091'
p3918
I6089
sS'6090'
p3919
I6088
sS'6093'
p3920
I6091
sS'6092'
p3921
I6090
sS'6095'
p3922
I6093
sS'6094'
p3923
I6092
sS'6097'
p3924
I6095
sS'6096'
p3925
I6094
sS'3678'
p3926
I3676
sS'3679'
p3927
I3677
sS'3672'
p3928
I3670
sS'3673'
p3929
I3671
sS'3670'
p3930
I3668
sS'3671'
p3931
I3669
sS'3676'
p3932
I3674
sS'3677'
p3933
I3675
sS'3674'
p3934
I3672
sS'3675'
p3935
I3673
sS'2543'
p3936
I2541
sS'2542'
p3937
I2540
sS'2541'
p3938
I2539
sS'2540'
p3939
I2538
sS'2547'
p3940
I2545
sS'2546'
p3941
I2544
sS'2545'
p3942
I2543
sS'2544'
p3943
I2542
sS'2549'
p3944
I2547
sS'2548'
p3945
I2546
sS'1456'
p3946
I1454
sS'1457'
p3947
I1455
sS'1450'
p3948
I1448
sS'1451'
p3949
I1449
sS'5003'
p3950
I5001
sS'3581'
p3951
I3579
sS'3582'
p3952
I3580
sS'3583'
p3953
I3581
sS'3584'
p3954
I3582
sS'3585'
p3955
I3583
sS'3586'
p3956
I3584
sS'3587'
p3957
I3585
sS'3588'
p3958
I3586
sS'3589'
p3959
I3587
sS'5009'
p3960
I5007
sS'1101'
p3961
I1099
sS'902'
p3962
I900
sS'903'
p3963
I901
sS'900'
p3964
I898
sS'901'
p3965
I899
sS'906'
p3966
I904
sS'907'
p3967
I905
sS'904'
p3968
I902
sS'905'
p3969
I903
sS'4422'
p3970
I4420
sS'4423'
p3971
I4421
sS'908'
p3972
I906
sS'909'
p3973
I907
sS'4426'
p3974
I4424
sS'4427'
p3975
I4425
sS'4424'
p3976
I4422
sS'4425'
p3977
I4423
sS'3293'
p3978
I3291
sS'2916'
p3979
I2914
sS'718'
p3980
I716
sS'1696'
p3981
I1694
sS'1697'
p3982
I1695
sS'1694'
p3983
I1692
sS'1695'
p3984
I1693
sS'1692'
p3985
I1690
sS'1693'
p3986
I1691
sS'1690'
p3987
I1688
sS'1691'
p3988
I1689
sS'1698'
p3989
I1696
sS'1699'
p3990
I1697
sS'1472'
p3991
I1470
sS'1473'
p3992
I1471
sS'1470'
p3993
I1468
sS'1471'
p3994
I1469
sS'1476'
p3995
I1474
sS'1477'
p3996
I1475
sS'1474'
p3997
I1472
sS'1475'
p3998
I1473
sS'1478'
p3999
I1476
sS'1479'
p4000
I1477
sS'4228'
p4001
I4226
sS'4229'
p4002
I4227
sS'4224'
p4003
I4222
sS'4225'
p4004
I4223
sS'4226'
p4005
I4224
sS'4227'
p4006
I4225
sS'4220'
p4007
I4218
sS'4221'
p4008
I4219
sS'4222'
p4009
I4220
sS'4223'
p4010
I4221
sS'24'
p4011
I23
sS'25'
p4012
I24
sS'26'
p4013
I25
sS'27'
p4014
I26
sS'20'
p4015
I19
sS'21'
p4016
I20
sS'22'
p4017
I21
sS'23'
p4018
I22
sS'28'
p4019
I27
sS'29'
p4020
I28
sS'5588'
p4021
I5586
sS'5589'
p4022
I5587
sS'1069'
p4023
I1067
sS'1068'
p4024
I1066
sS'1061'
p4025
I1059
sS'1060'
p4026
I1058
sS'1063'
p4027
I1061
sS'4923'
p4028
I4921
sS'1065'
p4029
I1063
sS'1064'
p4030
I1062
sS'1067'
p4031
I1065
sS'1066'
p4032
I1064
sS'2288'
p4033
I2286
sS'2289'
p4034
I2287
sS'2280'
p4035
I2278
sS'2281'
p4036
I2279
sS'2282'
p4037
I2280
sS'2283'
p4038
I2281
sS'2284'
p4039
I2282
sS'2285'
p4040
I2283
sS'2286'
p4041
I2284
sS'2287'
p4042
I2285
sS'4538'
p4043
I4536
sS'4539'
p4044
I4537
sS'4828'
p4045
I4826
sS'2056'
p4046
I2054
sS'4534'
p4047
I4532
sS'4535'
p4048
I4533
sS'4927'
p4049
I4925
sS'4536'
p4050
I4534
sS'4825'
p4051
I4823
sS'4530'
p4052
I4528
sS'4823'
p4053
I4821
sS'4820'
p4054
I4818
sS'4533'
p4055
I4531
sS'6288'
p4056
I6286
sS'6289'
p4057
I6287
sS'6284'
p4058
I6282
sS'6285'
p4059
I6283
sS'6286'
p4060
I6284
sS'6287'
p4061
I6285
sS'6280'
p4062
I6278
sS'6281'
p4063
I6279
sS'6282'
p4064
I6280
sS'6283'
p4065
I6281
sS'182'
p4066
I181
sS'183'
p4067
I182
sS'180'
p4068
I179
sS'181'
p4069
I180
sS'186'
p4070
I185
sS'187'
p4071
I186
sS'184'
p4072
I183
sS'185'
p4073
I184
sS'188'
p4074
I187
sS'189'
p4075
I188
sS'4924'
p4076
I4922
sS'5833'
p4077
I5831
sS'869'
p4078
I867
sS'868'
p4079
I866
sS'652'
p4080
I650
sS'3449'
p4081
I3447
sS'3448'
p4082
I3446
sS'861'
p4083
I859
sS'860'
p4084
I858
sS'863'
p4085
I861
sS'3446'
p4086
I3444
sS'3441'
p4087
I3439
sS'3440'
p4088
I3438
sS'867'
p4089
I865
sS'866'
p4090
I864
sS'2024'
p4091
I2022
sS'2025'
p4092
I2023
sS'2026'
p4093
I2024
sS'2027'
p4094
I2025
sS'2020'
p4095
I2018
sS'2021'
p4096
I2019
sS'2022'
p4097
I2020
sS'2751'
p4098
I2749
sS'2028'
p4099
I2026
sS'2029'
p4100
I2027
sS'2758'
p4101
I2756
sS'2759'
p4102
I2757
sS'5216'
p4103
I5214
sS'5217'
p4104
I5215
sS'5214'
p4105
I5212
sS'5215'
p4106
I5213
sS'5212'
p4107
I5210
sS'5213'
p4108
I5211
sS'5210'
p4109
I5208
sS'5211'
p4110
I5209
sS'5218'
p4111
I5216
sS'5219'
p4112
I5217
sS'4596'
p4113
I4594
sS'3058'
p4114
I3056
sS'3059'
p4115
I3057
sS'3056'
p4116
I3054
sS'3057'
p4117
I3055
sS'3054'
p4118
I3052
sS'3055'
p4119
I3053
sS'3052'
p4120
I3050
sS'3053'
p4121
I3051
sS'3050'
p4122
I3048
sS'3051'
p4123
I3049
sS'4597'
p4124
I4595
sS'8'
p4125
I7
sS'1317'
p4126
I1315
sS'1316'
p4127
I1314
sS'1315'
p4128
I1313
sS'1314'
p4129
I1312
sS'1313'
p4130
I1311
sS'1312'
p4131
I1310
sS'1311'
p4132
I1309
sS'1310'
p4133
I1308
sS'1319'
p4134
I1317
sS'1318'
p4135
I1316
sS'3948'
p4136
I3946
sS'3949'
p4137
I3947
sS'3940'
p4138
I3938
sS'3941'
p4139
I3939
sS'3942'
p4140
I3940
sS'3943'
p4141
I3941
sS'3944'
p4142
I3942
sS'3945'
p4143
I3943
sS'3946'
p4144
I3944
sS'3947'
p4145
I3945
sS'4057'
p4146
I4055
sS'4056'
p4147
I4054
sS'4055'
p4148
I4053
sS'4054'
p4149
I4052
sS'4053'
p4150
I4051
sS'4052'
p4151
I4050
sS'4051'
p4152
I4049
sS'4050'
p4153
I4048
sS'4059'
p4154
I4057
sS'4058'
p4155
I4056
sS'3610'
p4156
I3608
sS'3611'
p4157
I3609
sS'3612'
p4158
I3610
sS'3613'
p4159
I3611
sS'3614'
p4160
I3612
sS'3615'
p4161
I3613
sS'3616'
p4162
I3614
sS'3617'
p4163
I3615
sS'3618'
p4164
I3616
sS'3619'
p4165
I3617
sS'2569'
p4166
I2567
sS'2568'
p4167
I2566
sS'2561'
p4168
I2559
sS'2560'
p4169
I2558
sS'2563'
p4170
I2561
sS'2562'
p4171
I2560
sS'2565'
p4172
I2563
sS'2564'
p4173
I2562
sS'2567'
p4174
I2565
sS'2566'
p4175
I2564
sS'5029'
p4176
I5027
sS'5028'
p4177
I5026
sS'5021'
p4178
I5019
sS'5020'
p4179
I5018
sS'5023'
p4180
I5021
sS'5022'
p4181
I5020
sS'5025'
p4182
I5023
sS'5024'
p4183
I5022
sS'5027'
p4184
I5025
sS'5026'
p4185
I5024
sS'4440'
p4186
I4438
sS'4441'
p4187
I4439
sS'4442'
p4188
I4440
sS'4443'
p4189
I4441
sS'4444'
p4190
I4442
sS'4445'
p4191
I4443
sS'4446'
p4192
I4444
sS'4447'
p4193
I4445
sS'4448'
p4194
I4446
sS'4449'
p4195
I4447
sS'964'
p4196
I962
sS'965'
p4197
I963
sS'966'
p4198
I964
sS'967'
p4199
I965
sS'960'
p4200
I958
sS'961'
p4201
I959
sS'962'
p4202
I960
sS'963'
p4203
I961
sS'968'
p4204
I966
sS'969'
p4205
I967
sS'1537'
p4206
I1535
sS'1536'
p4207
I1534
sS'1535'
p4208
I1533
sS'1534'
p4209
I1532
sS'1245'
p4210
I1243
sS'1532'
p4211
I1530
sS'1247'
p4212
I1245
sS'3095'
p4213
I3093
sS'649'
p4214
I647
sS'1248'
p4215
I1246
sS'5199'
p4216
I5197
sS'5198'
p4217
I5196
sS'3234'
p4218
I3232
sS'3235'
p4219
I3233
sS'641'
p4220
I639
sS'5195'
p4221
I5193
sS'1965'
p4222
I1963
sS'1614'
p4223
I1612
sS'1615'
p4224
I1613
sS'1960'
p4225
I1958
sS'640'
p4226
I638
sS'1613'
p4227
I1611
sS'5193'
p4228
I5191
sS'1963'
p4229
I1961
sS'643'
p4230
I641
sS'1678'
p4231
I1676
sS'1679'
p4232
I1677
sS'1674'
p4233
I1672
sS'1675'
p4234
I1673
sS'1676'
p4235
I1674
sS'1677'
p4236
I1675
sS'1670'
p4237
I1668
sS'1671'
p4238
I1669
sS'1672'
p4239
I1670
sS'1673'
p4240
I1671
sS'642'
p4241
I640
sS'4498'
p4242
I4496
sS'645'
p4243
I643
sS'1418'
p4244
I1416
sS'1419'
p4245
I1417
sS'1410'
p4246
I1408
sS'1411'
p4247
I1409
sS'1412'
p4248
I1410
sS'1413'
p4249
I1411
sS'1414'
p4250
I1412
sS'1415'
p4251
I1413
sS'1416'
p4252
I1414
sS'1417'
p4253
I1415
sS'644'
p4254
I642
sS'4208'
p4255
I4206
sS'4209'
p4256
I4207
sS'4202'
p4257
I4200
sS'4203'
p4258
I4201
sS'4200'
p4259
I4198
sS'4201'
p4260
I4199
sS'4206'
p4261
I4204
sS'4207'
p4262
I4205
sS'4204'
p4263
I4202
sS'4205'
p4264
I4203
sS'647'
p4265
I645
sS'5568'
p4266
I5566
sS'5569'
p4267
I5567
sS'5564'
p4268
I5562
sS'5565'
p4269
I5563
sS'5566'
p4270
I5564
sS'5567'
p4271
I5565
sS'5560'
p4272
I5558
sS'5561'
p4273
I5559
sS'5562'
p4274
I5560
sS'5563'
p4275
I5561
sS'646'
p4276
I644
sS'308'
p4277
I306
sS'309'
p4278
I307
sS'300'
p4279
I298
sS'301'
p4280
I299
sS'302'
p4281
I300
sS'303'
p4282
I301
sS'304'
p4283
I302
sS'305'
p4284
I303
sS'306'
p4285
I304
sS'307'
p4286
I305
sS'4893'
p4287
I4891
sS'4892'
p4288
I4890
sS'4891'
p4289
I4889
sS'2773'
p4290
I2771
sS'4897'
p4291
I4895
sS'4896'
p4292
I4894
sS'4895'
p4293
I4893
sS'4894'
p4294
I4892
sS'6118'
p4295
I6116
sS'6119'
p4296
I6117
sS'6114'
p4297
I6112
sS'6115'
p4298
I6113
sS'6116'
p4299
I6114
sS'6117'
p4300
I6115
sS'6110'
p4301
I6108
sS'6111'
p4302
I6109
sS'6112'
p4303
I6110
sS'6113'
p4304
I6111
sS'3429'
p4305
I3427
sS'3428'
p4306
I3426
sS'3423'
p4307
I3421
sS'3422'
p4308
I3420
sS'3421'
p4309
I3419
sS'3420'
p4310
I3418
sS'3427'
p4311
I3425
sS'3426'
p4312
I3424
sS'3425'
p4313
I3423
sS'3424'
p4314
I3422
sS'2002'
p4315
I2000
sS'2003'
p4316
I2001
sS'2000'
p4317
I1998
sS'2001'
p4318
I1999
sS'4589'
p4319
I4587
sS'2007'
p4320
I2005
sS'2004'
p4321
I2002
sS'4858'
p4322
I4856
sS'4585'
p4323
I4583
sS'4856'
p4324
I4854
sS'4587'
p4325
I4585
sS'4586'
p4326
I4584
sS'4853'
p4327
I4851
sS'4852'
p4328
I4850
sS'4851'
p4329
I4849
sS'4850'
p4330
I4848
sS'1906'
p4331
I1904
sS'1087'
p4332
I1085
sS'1086'
p4333
I1084
sS'1085'
p4334
I1083
sS'1084'
p4335
I1082
sS'1083'
p4336
I1081
sS'1082'
p4337
I1080
sS'1081'
p4338
I1079
sS'1080'
p4339
I1078
sS'1089'
p4340
I1087
sS'1088'
p4341
I1086
sS'1904'
p4342
I1902
sS'5134'
p4343
I5132
sS'449'
p4344
I447
sS'448'
p4345
I446
sS'1339'
p4346
I1337
sS'1338'
p4347
I1336
sS'1335'
p4348
I1333
sS'1334'
p4349
I1332
sS'1337'
p4350
I1335
sS'1336'
p4351
I1334
sS'1331'
p4352
I1329
sS'1330'
p4353
I1328
sS'1333'
p4354
I1331
sS'1332'
p4355
I1330
sS'39'
p4356
I38
sS'38'
p4357
I37
sS'33'
p4358
I32
sS'32'
p4359
I31
sS'31'
p4360
I30
sS'30'
p4361
I29
sS'37'
p4362
I36
sS'36'
p4363
I35
sS'35'
p4364
I34
sS'34'
p4365
I33
sS'1903'
p4366
I1901
sS'3467'
p4367
I3465
sS'3466'
p4368
I3464
sS'845'
p4369
I843
sS'3464'
p4370
I3462
sS'3463'
p4371
I3461
sS'3462'
p4372
I3460
sS'4079'
p4373
I4077
sS'4078'
p4374
I4076
sS'4075'
p4375
I4073
sS'4074'
p4376
I4072
sS'4077'
p4377
I4075
sS'4076'
p4378
I4074
sS'4071'
p4379
I4069
sS'4070'
p4380
I4068
sS'4073'
p4381
I4071
sS'4072'
p4382
I4070
sS'3966'
p4383
I3964
sS'3967'
p4384
I3965
sS'3964'
p4385
I3962
sS'3965'
p4386
I3963
sS'3962'
p4387
I3960
sS'3963'
p4388
I3961
sS'3960'
p4389
I3958
sS'3961'
p4390
I3959
sS'3968'
p4391
I3966
sS'3969'
p4392
I3967
sS'3638'
p4393
I3636
sS'3639'
p4394
I3637
sS'3636'
p4395
I3634
sS'3637'
p4396
I3635
sS'3634'
p4397
I3632
sS'3635'
p4398
I3633
sS'3632'
p4399
I3630
sS'3633'
p4400
I3631
sS'3630'
p4401
I3628
sS'3631'
p4402
I3629
sS'3469'
p4403
I3467
sS'3468'
p4404
I3466
sS'5450'
p4405
I5448
sS'4468'
p4406
I4466
sS'4469'
p4407
I4467
sS'4466'
p4408
I4464
sS'4467'
p4409
I4465
sS'4464'
p4410
I4462
sS'4465'
p4411
I4463
sS'4462'
p4412
I4460
sS'4463'
p4413
I4461
sS'4460'
p4414
I4458
sS'4461'
p4415
I4459
sS'948'
p4416
I946
sS'949'
p4417
I947
sS'946'
p4418
I944
sS'947'
p4419
I945
sS'944'
p4420
I942
sS'945'
p4421
I943
sS'942'
p4422
I940
sS'943'
p4423
I941
sS'940'
p4424
I938
sS'941'
p4425
I939
sS'2410'
p4426
I2408
sS'6326'
p4427
I6324
sS'6325'
p4428
I6323
sS'6324'
p4429
I6322
sS'6323'
p4430
I6321
sS'6322'
p4431
I6320
sS'6321'
p4432
I6319
sS'6320'
p4433
I6318
sS'4793'
p4434
I4791
sS'1658'
p4435
I1656
sS'1659'
p4436
I1657
sS'1652'
p4437
I1650
sS'1653'
p4438
I1651
sS'1650'
p4439
I1648
sS'1651'
p4440
I1649
sS'1656'
p4441
I1654
sS'1657'
p4442
I1655
sS'1654'
p4443
I1652
sS'1655'
p4444
I1653
sS'586'
p4445
I584
sS'587'
p4446
I585
sS'584'
p4447
I582
sS'585'
p4448
I583
sS'582'
p4449
I580
sS'583'
p4450
I581
sS'580'
p4451
I578
sS'5239'
p4452
I5237
sS'588'
p4453
I586
sS'589'
p4454
I587
sS'2839'
p4455
I2837
sS'2838'
p4456
I2836
sS'2837'
p4457
I2835
sS'2836'
p4458
I2834
sS'2835'
p4459
I2833
sS'2834'
p4460
I2832
sS'2833'
p4461
I2831
sS'2832'
p4462
I2830
sS'2831'
p4463
I2829
sS'2830'
p4464
I2828
sS'3391'
p4465
I3389
sS'3390'
p4466
I3388
sS'5405'
p4467
I5403
sS'5404'
p4468
I5402
sS'5403'
p4469
I5401
sS'5402'
p4470
I5400
sS'5401'
p4471
I5399
sS'5400'
p4472
I5398
sS'3399'
p4473
I3397
sS'3398'
p4474
I3396
sS'5409'
p4475
I5407
sS'1439'
p4476
I1437
sS'5230'
p4477
I5228
sS'5231'
p4478
I5229
sS'5232'
p4479
I5230
sS'4260'
p4480
I4258
sS'4261'
p4481
I4259
sS'4262'
p4482
I4260
sS'1732'
p4483
I1730
sS'4264'
p4484
I4262
sS'4265'
p4485
I4263
sS'4266'
p4486
I4264
sS'4267'
p4487
I4265
sS'4268'
p4488
I4266
sS'4269'
p4489
I4267
sS'1734'
p4490
I1732
sS'3702'
p4491
I3700
sS'5236'
p4492
I5234
sS'3703'
p4493
I3701
sS'5237'
p4494
I5235
sS'1885'
p4495
I1883
sS'5548'
p4496
I5546
sS'3701'
p4497
I3699
sS'5542'
p4498
I5540
sS'3706'
p4499
I3704
sS'5540'
p4500
I5538
sS'5541'
p4501
I5539
sS'5546'
p4502
I5544
sS'5547'
p4503
I5545
sS'5544'
p4504
I5542
sS'3707'
p4505
I3705
sS'1881'
p4506
I1879
sS'1880'
p4507
I1878
sS'5890'
p4508
I5888
sS'5891'
p4509
I5889
sS'5892'
p4510
I5890
sS'5893'
p4511
I5891
sS'5894'
p4512
I5892
sS'5895'
p4513
I5893
sS'5896'
p4514
I5894
sS'5897'
p4515
I5895
sS'5898'
p4516
I5896
sS'4668'
p4517
I4666
sS'4669'
p4518
I4667
sS'2127'
p4519
I2125
sS'2126'
p4520
I2124
sS'4664'
p4521
I4662
sS'2128'
p4522
I2126
sS'4666'
p4523
I4664
sS'4667'
p4524
I4665
sS'4660'
p4525
I4658
sS'4661'
p4526
I4659
sS'4662'
p4527
I4660
sS'4663'
p4528
I4661
sS'322'
p4529
I320
sS'323'
p4530
I321
sS'320'
p4531
I318
sS'321'
p4532
I319
sS'326'
p4533
I324
sS'327'
p4534
I325
sS'324'
p4535
I322
sS'325'
p4536
I323
sS'328'
p4537
I326
sS'329'
p4538
I327
sS'1595'
p4539
I1593
sS'6138'
p4540
I6136
sS'6139'
p4541
I6137
sS'1594'
p4542
I1592
sS'6132'
p4543
I6130
sS'6133'
p4544
I6131
sS'6130'
p4545
I6128
sS'6131'
p4546
I6129
sS'6136'
p4547
I6134
sS'3072'
p4548
I3070
sS'6134'
p4549
I6132
sS'6135'
p4550
I6133
sS'3073'
p4551
I3071
sS'1591'
p4552
I1589
sS'1590'
p4553
I1588
sS'3076'
p4554
I3074
sS'1592'
p4555
I1590
sS'3252'
p4556
I3250
sS'2248'
p4557
I2246
sS'2249'
p4558
I2247
sS'2244'
p4559
I2242
sS'2245'
p4560
I2243
sS'2246'
p4561
I2244
sS'2247'
p4562
I2245
sS'2240'
p4563
I2238
sS'2241'
p4564
I2239
sS'2242'
p4565
I2240
sS'2243'
p4566
I2241
sS'3401'
p4567
I3399
sS'3400'
p4568
I3398
sS'3403'
p4569
I3401
sS'3402'
p4570
I3400
sS'3405'
p4571
I3403
sS'3404'
p4572
I3402
sS'3407'
p4573
I3405
sS'3406'
p4574
I3404
sS'3409'
p4575
I3407
sS'3408'
p4576
I3406
sS'4875'
p4577
I4873
sS'4874'
p4578
I4872
sS'4877'
p4579
I4875
sS'4876'
p4580
I4874
sS'4871'
p4581
I4869
sS'4870'
p4582
I4868
sS'4873'
p4583
I4871
sS'4872'
p4584
I4870
sS'4879'
p4585
I4877
sS'4878'
p4586
I4876
sS'2068'
p4587
I2066
sS'2069'
p4588
I2067
sS'2798'
p4589
I2796
sS'2799'
p4590
I2797
sS'2792'
p4591
I2790
sS'2793'
p4592
I2791
sS'2790'
p4593
I2788
sS'2791'
p4594
I2789
sS'2796'
p4595
I2794
sS'2797'
p4596
I2795
sS'2794'
p4597
I2792
sS'2795'
p4598
I2793
sS'5455'
p4599
I5453
sS'3256'
p4600
I3254
sS'5692'
p4601
I5690
sS'5690'
p4602
I5688
sS'6178'
p4603
I6176
sS'5691'
p4604
I5689
sS'5696'
p4605
I5694
sS'4883'
p4606
I4881
sS'1359'
p4607
I1357
sS'1358'
p4608
I1356
sS'469'
p4609
I467
sS'468'
p4610
I466
sS'465'
p4611
I463
sS'464'
p4612
I462
sS'467'
p4613
I465
sS'466'
p4614
I464
sS'1357'
p4615
I1355
sS'460'
p4616
I458
sS'1355'
p4617
I1353
sS'1354'
p4618
I1352
sS'4885'
p4619
I4883
sS'3184'
p4620
I3182
sS'3185'
p4621
I3183
sS'3186'
p4622
I3184
sS'3187'
p4623
I3185
sS'3180'
p4624
I3178
sS'3181'
p4625
I3179
sS'3182'
p4626
I3180
sS'3183'
p4627
I3181
sS'3188'
p4628
I3186
sS'3189'
p4629
I3187
sS'4019'
p4630
I4017
sS'4018'
p4631
I4016
sS'4013'
p4632
I4011
sS'4012'
p4633
I4010
sS'4011'
p4634
I4009
sS'4010'
p4635
I4008
sS'4017'
p4636
I4015
sS'4016'
p4637
I4014
sS'4015'
p4638
I4013
sS'4014'
p4639
I4012
sS'5797'
p4640
I5795
sS'3988'
p4641
I3986
sS'3989'
p4642
I3987
sS'3984'
p4643
I3982
sS'3985'
p4644
I3983
sS'3986'
p4645
I3984
sS'3987'
p4646
I3985
sS'3980'
p4647
I3978
sS'3981'
p4648
I3979
sS'3982'
p4649
I3980
sS'3983'
p4650
I3981
sS'5796'
p4651
I5794
sS'1447'
p4652
I1445
sS'1446'
p4653
I1444
sS'1445'
p4654
I1443
sS'289'
p4655
I287
sS'288'
p4656
I286
sS'1444'
p4657
I1442
sS'281'
p4658
I279
sS'1443'
p4659
I1441
sS'283'
p4660
I281
sS'282'
p4661
I280
sS'285'
p4662
I283
sS'284'
p4663
I282
sS'287'
p4664
I285
sS'1442'
p4665
I1440
sS'1441'
p4666
I1439
sS'1116'
p4667
I1114
sS'3561'
p4668
I3559
sS'5793'
p4669
I5791
sS'2477'
p4670
I2475
sS'2476'
p4671
I2474
sS'2475'
p4672
I2473
sS'2474'
p4673
I2472
sS'2473'
p4674
I2471
sS'2472'
p4675
I2470
sS'2471'
p4676
I2469
sS'2470'
p4677
I2468
sS'2479'
p4678
I2477
sS'2478'
p4679
I2476
sS'5791'
p4680
I5789
sS'6309'
p4681
I6307
sS'6308'
p4682
I6306
sS'6305'
p4683
I6303
sS'6304'
p4684
I6302
sS'6307'
p4685
I6305
sS'6306'
p4686
I6304
sS'6301'
p4687
I6299
sS'6300'
p4688
I6298
sS'6303'
p4689
I6301
sS'6302'
p4690
I6300
sS'2907'
p4691
I2905
sS'2906'
p4692
I2904
sS'1986'
p4693
I1984
sS'3215'
p4694
I3213
sS'3216'
p4695
I3214
sS'1985'
p4696
I1983
sS'3210'
p4697
I3208
sS'3211'
p4698
I3209
sS'3212'
p4699
I3210
sS'3213'
p4700
I3211
sS'1638'
p4701
I1636
sS'1639'
p4702
I1637
sS'2904'
p4703
I2902
sS'3218'
p4704
I3216
sS'3219'
p4705
I3217
sS'1988'
p4706
I1986
sS'1989'
p4707
I1987
sS'2909'
p4708
I2907
sS'2815'
p4709
I2813
sS'2814'
p4710
I2812
sS'2817'
p4711
I2815
sS'707'
p4712
I705
sS'2811'
p4713
I2809
sS'2810'
p4714
I2808
sS'2813'
p4715
I2811
sS'2812'
p4716
I2810
sS'560'
p4717
I558
sS'561'
p4718
I559
sS'562'
p4719
I560
sS'563'
p4720
I561
sS'2819'
p4721
I2817
sS'2818'
p4722
I2816
sS'566'
p4723
I564
sS'567'
p4724
I565
sS'5429'
p4725
I5427
sS'5428'
p4726
I5426
sS'3379'
p4727
I3377
sS'3378'
p4728
I3376
sS'5425'
p4729
I5423
sS'5424'
p4730
I5422
sS'5427'
p4731
I5425
sS'5426'
p4732
I5424
sS'5421'
p4733
I5419
sS'5420'
p4734
I5418
sS'5423'
p4735
I5421
sS'5422'
p4736
I5420
sS'4248'
p4737
I4246
sS'4249'
p4738
I4247
sS'4246'
p4739
I4244
sS'4247'
p4740
I4245
sS'4244'
p4741
I4242
sS'4245'
p4742
I4243
sS'4242'
p4743
I4240
sS'4243'
p4744
I4241
sS'4240'
p4745
I4238
sS'4241'
p4746
I4239
sS'5520'
p4747
I5518
sS'5521'
p4748
I5519
sS'5522'
p4749
I5520
sS'5523'
p4750
I5521
sS'5524'
p4751
I5522
sS'5525'
p4752
I5523
sS'5526'
p4753
I5524
sS'5527'
p4754
I5525
sS'5528'
p4755
I5526
sS'5529'
p4756
I5527
sS'48'
p4757
I47
sS'49'
p4758
I48
sS'46'
p4759
I45
sS'47'
p4760
I46
sS'44'
p4761
I43
sS'45'
p4762
I44
sS'42'
p4763
I41
sS'43'
p4764
I42
sS'40'
p4765
I39
sS'41'
p4766
I40
sS'5310'
p4767
I5308
sS'344'
p4768
I342
sS'345'
p4769
I343
sS'346'
p4770
I344
sS'347'
p4771
I345
sS'340'
p4772
I338
sS'341'
p4773
I339
sS'342'
p4774
I340
sS'343'
p4775
I341
sS'348'
p4776
I346
sS'349'
p4777
I347
sS'6150'
p4778
I6148
sS'6151'
p4779
I6149
sS'6152'
p4780
I6150
sS'6153'
p4781
I6151
sS'6154'
p4782
I6152
sS'2132'
p4783
I2130
sS'6156'
p4784
I6154
sS'6157'
p4785
I6155
sS'6158'
p4786
I6156
sS'6159'
p4787
I6157
sS'3236'
p4788
I3234
sS'4831'
p4789
I4829
sS'4526'
p4790
I4524
sS'3237'
p4791
I3235
sS'4833'
p4792
I4831
sS'4524'
p4793
I4522
sS'4835'
p4794
I4833
sS'4834'
p4795
I4832
sS'4837'
p4796
I4835
sS'4836'
p4797
I4834
sS'4784'
p4798
I4782
sS'2268'
p4799
I2266
sS'2269'
p4800
I2267
sS'2262'
p4801
I2260
sS'2263'
p4802
I2261
sS'2260'
p4803
I2258
sS'2261'
p4804
I2259
sS'2266'
p4805
I2264
sS'2267'
p4806
I2265
sS'2264'
p4807
I2262
sS'2265'
p4808
I2263
sS'2046'
p4809
I2044
sS'2047'
p4810
I2045
sS'2044'
p4811
I2042
sS'2045'
p4812
I2043
sS'2042'
p4813
I2040
sS'2043'
p4814
I2041
sS'2040'
p4815
I2038
sS'2041'
p4816
I2039
sS'4819'
p4817
I4817
sS'4818'
p4818
I4816
sS'2048'
p4819
I2046
sS'2049'
p4820
I2047
sS'1365'
p4821
I1363
sS'4389'
p4822
I4387
sS'4388'
p4823
I4386
sS'4383'
p4824
I4381
sS'4382'
p4825
I4380
sS'4381'
p4826
I4379
sS'4380'
p4827
I4378
sS'4387'
p4828
I4385
sS'4386'
p4829
I4384
sS'4385'
p4830
I4383
sS'4384'
p4831
I4382
sS'407'
p4832
I405
sS'406'
p4833
I404
sS'405'
p4834
I403
sS'1372'
p4835
I1370
sS'1375'
p4836
I1373
sS'1374'
p4837
I1372
sS'1377'
p4838
I1375
sS'400'
p4839
I398
sS'1379'
p4840
I1377
sS'1378'
p4841
I1376
sS'409'
p4842
I407
sS'408'
p4843
I406
sS'4031'
p4844
I4029
sS'4030'
p4845
I4028
sS'4033'
p4846
I4031
sS'4032'
p4847
I4030
sS'4035'
p4848
I4033
sS'4034'
p4849
I4032
sS'4037'
p4850
I4035
sS'4036'
p4851
I4034
sS'4039'
p4852
I4037
sS'4038'
p4853
I4036
sS'5498'
p4854
I5496
sS'5499'
p4855
I5497
sS'2459'
p4856
I2457
sS'2458'
p4857
I2456
sS'2455'
p4858
I2453
sS'2454'
p4859
I2452
sS'2457'
p4860
I2455
sS'2456'
p4861
I2454
sS'2451'
p4862
I2449
sS'2450'
p4863
I2448
sS'2453'
p4864
I2451
sS'2452'
p4865
I2450
sS'656'
p4866
I654
sS'657'
p4867
I655
sS'654'
p4868
I652
sS'655'
p4869
I653
sS'3089'
p4870
I3087
sS'3088'
p4871
I3086
sS'650'
p4872
I648
sS'651'
p4873
I649
sS'4982'
p4874
I4980
sS'1508'
p4875
I1506
sS'1509'
p4876
I1507
sS'5496'
p4877
I5494
sS'1601'
p4878
I1599
sS'658'
p4879
I656
sS'1600'
p4880
I1598
sS'3082'
p4881
I3080
sS'1603'
p4882
I1601
sS'1602'
p4883
I1600
sS'5497'
p4884
I5495
sS'1605'
p4885
I1603
sS'1604'
p4886
I1602
sS'1607'
p4887
I1605
sS'1606'
p4888
I1604
sS'3232'
p4889
I3230
sS'3233'
p4890
I3231
sS'3230'
p4891
I3228
sS'3231'
p4892
I3229
sS'1968'
p4893
I1966
sS'1969'
p4894
I1967
sS'1618'
p4895
I1616
sS'1619'
p4896
I1617
sS'1616'
p4897
I1614
sS'1617'
p4898
I1615
sS'3238'
p4899
I3236
sS'3239'
p4900
I3237
sS'1612'
p4901
I1610
sS'5190'
p4902
I5188
sS'1610'
p4903
I1608
sS'1611'
p4904
I1609
sS'2873'
p4905
I2871
sS'2872'
p4906
I2870
sS'2871'
p4907
I2869
sS'2870'
p4908
I2868
sS'2877'
p4909
I2875
sS'2876'
p4910
I2874
sS'2875'
p4911
I2873
sS'2874'
p4912
I2872
sS'2879'
p4913
I2877
sS'2878'
p4914
I2876
sS'3355'
p4915
I3353
sS'3354'
p4916
I3352
sS'3357'
p4917
I3355
sS'3356'
p4918
I3354
sS'3351'
p4919
I3349
sS'3350'
p4920
I3348
sS'3353'
p4921
I3351
sS'3352'
p4922
I3350
sS'3359'
p4923
I3357
sS'3358'
p4924
I3356
sS'5449'
p4925
I5447
sS'5448'
p4926
I5446
sS'5443'
p4927
I5441
sS'5442'
p4928
I5440
sS'5441'
p4929
I5439
sS'5440'
p4930
I5438
sS'5447'
p4931
I5445
sS'5446'
p4932
I5444
sS'5445'
p4933
I5443
sS'5444'
p4934
I5442
sS'5493'
p4935
I5491
sS'5508'
p4936
I5506
sS'5509'
p4937
I5507
sS'5506'
p4938
I5504
sS'5507'
p4939
I5505
sS'5504'
p4940
I5502
sS'5505'
p4941
I5503
sS'5502'
p4942
I5500
sS'5503'
p4943
I5501
sS'5500'
p4944
I5498
sS'5501'
p4945
I5499
sS'542'
p4946
I540
sS'543'
p4947
I541
sS'540'
p4948
I538
sS'541'
p4949
I539
sS'546'
p4950
I544
sS'547'
p4951
I545
sS'544'
p4952
I542
sS'545'
p4953
I543
sS'548'
p4954
I546
sS'549'
p4955
I547
sS'6155'
p4956
I6153
sS'5476'
p4957
I5474
sS'5477'
p4958
I5475
sS'5474'
p4959
I5472
sS'5475'
p4960
I5473
sS'5472'
p4961
I5470
sS'5136'
p4962
I5134
sS'5473'
p4963
I5471
sS'3827'
p4964
I3825
sS'3826'
p4965
I3824
sS'3825'
p4966
I3823
sS'3824'
p4967
I3822
sS'3823'
p4968
I3821
sS'3822'
p4969
I3820
sS'3821'
p4970
I3819
sS'3820'
p4971
I3818
sS'5471'
p4972
I5469
sS'5001'
p4973
I4999
sS'3829'
p4974
I3827
sS'3828'
p4975
I3826
sS'5000'
p4976
I4998
sS'5007'
p4977
I5005
sS'5006'
p4978
I5004
sS'5005'
p4979
I5003
sS'5004'
p4980
I5002
sS'368'
p4981
I366
sS'369'
p4982
I367
sS'366'
p4983
I364
sS'367'
p4984
I365
sS'364'
p4985
I362
sS'365'
p4986
I363
sS'362'
p4987
I360
sS'363'
p4988
I361
sS'360'
p4989
I358
sS'361'
p4990
I359
sS'5008'
p4991
I5006
sS'1945'
p4992
I1943
sS'5133'
p4993
I5131
sS'6179'
p4994
I6177
sS'6176'
p4995
I6174
sS'6177'
p4996
I6175
sS'6174'
p4997
I6172
sS'6175'
p4998
I6173
sS'6172'
p4999
I6170
sS'6173'
p5000
I6171
sS'6170'
p5001
I6168
sS'6171'
p5002
I6169
sS'5131'
p5003
I5129
sS'3217'
p5004
I3215
sS'2200'
p5005
I2198
sS'2201'
p5006
I2199
sS'2202'
p5007
I2200
sS'2203'
p5008
I2201
sS'2204'
p5009
I2202
sS'2205'
p5010
I2203
sS'2206'
p5011
I2204
sS'2207'
p5012
I2205
sS'2208'
p5013
I2206
sS'2209'
p5014
I2207
sS'4428'
p5015
I4426
sS'4429'
p5016
I4427
sS'4839'
p5017
I4837
sS'4838'
p5018
I4836
sS'4529'
p5019
I4527
sS'4528'
p5020
I4526
sS'4527'
p5021
I4525
sS'4830'
p5022
I4828
sS'4525'
p5023
I4523
sS'4832'
p5024
I4830
sS'4523'
p5025
I4521
sS'4522'
p5026
I4520
sS'4521'
p5027
I4519
sS'4520'
p5028
I4518
sS'4420'
p5029
I4418
sS'4421'
p5030
I4419
sS'5298'
p5031
I5296
sS'5299'
p5032
I5297
sS'5296'
p5033
I5294
sS'5297'
p5034
I5295
sS'5294'
p5035
I5292
sS'5295'
p5036
I5293
sS'5292'
p5037
I5290
sS'5293'
p5038
I5291
sS'5290'
p5039
I5288
sS'5291'
p5040
I5289
sS'5510'
p5041
I5508
sS'5697'
p5042
I5695
sS'5516'
p5043
I5514
sS'2998'
p5044
I2996
sS'2999'
p5045
I2997
sS'59'
p5046
I58
sS'58'
p5047
I57
sS'55'
p5048
I54
sS'54'
p5049
I53
sS'57'
p5050
I56
sS'56'
p5051
I55
sS'51'
p5052
I50
sS'50'
p5053
I49
sS'53'
p5054
I52
sS'52'
p5055
I51
sS'2990'
p5056
I2988
sS'2991'
p5057
I2989
sS'2992'
p5058
I2990
sS'2993'
p5059
I2991
sS'2994'
p5060
I2992
sS'2995'
p5061
I2993
sS'2996'
p5062
I2994
sS'2997'
p5063
I2995
sS'429'
p5064
I427
sS'428'
p5065
I426
sS'1399'
p5066
I1397
sS'1398'
p5067
I1396
sS'421'
p5068
I419
sS'420'
p5069
I418
sS'423'
p5070
I421
sS'422'
p5071
I420
sS'425'
p5072
I423
sS'424'
p5073
I422
sS'427'
p5074
I425
sS'426'
p5075
I424
sS'854'
p5076
I852
sS'855'
p5077
I853
sS'856'
p5078
I854
sS'857'
p5079
I855
sS'850'
p5080
I848
sS'851'
p5081
I849
sS'852'
p5082
I850
sS'853'
p5083
I851
sS'1422'
p5084
I1420
sS'1425'
p5085
I1423
sS'2330'
p5086
I2328
sS'1424'
p5087
I1422
sS'2331'
p5088
I2329
sS'2332'
p5089
I2330
sS'2333'
p5090
I2331
sS'2334'
p5091
I2332
sS'2335'
p5092
I2333
sS'2336'
p5093
I2334
sS'4713'
p5094
I4711
sS'2439'
p5095
I2437
sS'2438'
p5096
I2436
sS'2433'
p5097
I2431
sS'2432'
p5098
I2430
sS'2431'
p5099
I2429
sS'2430'
p5100
I2428
sS'2437'
p5101
I2435
sS'2436'
p5102
I2434
sS'2435'
p5103
I2433
sS'2434'
p5104
I2432
sS'5470'
p5105
I5468
sS'3782'
p5106
I3780
sS'1806'
p5107
I1804
sS'1805'
p5108
I1803
sS'3781'
p5109
I3779
sS'1803'
p5110
I1801
sS'3787'
p5111
I3785
sS'3784'
p5112
I3782
sS'1800'
p5113
I1798
sS'3788'
p5114
I3786
sS'3789'
p5115
I3787
sS'1809'
p5116
I1807
sS'1808'
p5117
I1806
sS'4996'
p5118
I4994
sS'4997'
p5119
I4995
sS'4994'
p5120
I4992
sS'4995'
p5121
I4993
sS'4992'
p5122
I4990
sS'4993'
p5123
I4991
sS'4990'
p5124
I4988
sS'4991'
p5125
I4989
sS'4998'
p5126
I4996
sS'4999'
p5127
I4997
sS'1547'
p5128
I1545
sS'3258'
p5129
I3256
sS'3259'
p5130
I3257
sS'1948'
p5131
I1946
sS'1949'
p5132
I1947
sS'1942'
p5133
I1940
sS'1943'
p5134
I1941
sS'1940'
p5135
I1938
sS'1941'
p5136
I1939
sS'1946'
p5137
I1944
sS'1947'
p5138
I1945
sS'1944'
p5139
I1942
sS'3257'
p5140
I3255
sS'2859'
p5141
I2857
sS'2858'
p5142
I2856
sS'2851'
p5143
I2849
sS'2850'
p5144
I2848
sS'2853'
p5145
I2851
sS'2852'
p5146
I2850
sS'2855'
p5147
I2853
sS'2854'
p5148
I2852
sS'2857'
p5149
I2855
sS'2856'
p5150
I2854
sS'5461'
p5151
I5459
sS'1397'
p5152
I1395
sS'5463'
p5153
I5461
sS'5462'
p5154
I5460
sS'1494'
p5155
I1492
sS'1495'
p5156
I1493
sS'1496'
p5157
I1494
sS'1396'
p5158
I1394
sS'1498'
p5159
I1496
sS'1499'
p5160
I1497
sS'3339'
p5161
I3337
sS'3338'
p5162
I3336
sS'1395'
p5163
I1393
sS'1394'
p5164
I1392
sS'1393'
p5165
I1391
sS'1392'
p5166
I1390
sS'1391'
p5167
I1389
sS'1390'
p5168
I1388
sS'524'
p5169
I522
sS'525'
p5170
I523
sS'526'
p5171
I524
sS'527'
p5172
I525
sS'520'
p5173
I518
sS'521'
p5174
I519
sS'522'
p5175
I520
sS'523'
p5176
I521
sS'528'
p5177
I526
sS'529'
p5178
I527
sS'1234'
p5179
I1232
sS'1235'
p5180
I1233
sS'1236'
p5181
I1234
sS'1237'
p5182
I1235
sS'1230'
p5183
I1228
sS'1231'
p5184
I1229
sS'1232'
p5185
I1230
sS'1233'
p5186
I1231
sS'1238'
p5187
I1236
sS'1239'
p5188
I1237
sS'1964'
p5189
I1962
sS'2488'
p5190
I2486
sS'2489'
p5191
I2487
sS'4677'
p5192
I4675
sS'4900'
p5193
I4898
sS'4675'
p5194
I4673
sS'2485'
p5195
I2483
sS'3809'
p5196
I3807
sS'3808'
p5197
I3806
sS'3805'
p5198
I3803
sS'3804'
p5199
I3802
sS'3807'
p5200
I3805
sS'3806'
p5201
I3804
sS'3801'
p5202
I3799
sS'3800'
p5203
I3798
sS'3803'
p5204
I3801
sS'3802'
p5205
I3800
sS'4907'
p5206
I4905
sS'2481'
p5207
I2479
sS'1967'
p5208
I1965
sS'4174'
p5209
I4172
sS'4175'
p5210
I4173
sS'4176'
p5211
I4174
sS'4177'
p5212
I4175
sS'4170'
p5213
I4168
sS'4171'
p5214
I4169
sS'4172'
p5215
I4170
sS'4173'
p5216
I4171
sS'1961'
p5217
I1959
sS'4178'
p5218
I4176
sS'4179'
p5219
I4177
sS'1962'
p5220
I1960
sS'2228'
p5221
I2226
sS'2229'
p5222
I2227
sS'2226'
p5223
I2224
sS'2227'
p5224
I2225
sS'2224'
p5225
I2222
sS'2225'
p5226
I2223
sS'2222'
p5227
I2220
sS'2223'
p5228
I2221
sS'2220'
p5229
I2218
sS'2221'
p5230
I2219
sS'5924'
p5231
I5922
sS'5925'
p5232
I5923
sS'5926'
p5233
I5924
sS'5927'
p5234
I5925
sS'5920'
p5235
I5918
sS'5921'
p5236
I5919
sS'5922'
p5237
I5920
sS'5923'
p5238
I5921
sS'5928'
p5239
I5926
sS'5929'
p5240
I5927
sS'4505'
p5241
I4503
sS'4504'
p5242
I4502
sS'4507'
p5243
I4505
sS'4506'
p5244
I4504
sS'4501'
p5245
I4499
sS'4500'
p5246
I4498
sS'4503'
p5247
I4501
sS'4502'
p5248
I4500
sS'4509'
p5249
I4507
sS'4508'
p5250
I4506
sS'2088'
p5251
I2086
sS'2089'
p5252
I2087
sS'2082'
p5253
I2080
sS'2083'
p5254
I2081
sS'2080'
p5255
I2078
sS'2081'
p5256
I2079
sS'2086'
p5257
I2084
sS'2087'
p5258
I2085
sS'2084'
p5259
I2082
sS'2085'
p5260
I2083
sS'1009'
p5261
I1007
sS'1008'
p5262
I1006
sS'1007'
p5263
I1005
sS'1006'
p5264
I1004
sS'1005'
p5265
I1003
sS'1004'
p5266
I1002
sS'1003'
p5267
I1001
sS'1002'
p5268
I1000
sS'1001'
p5269
I999
sS'1000'
p5270
I998
sS'4349'
p5271
I4347
sS'4348'
p5272
I4346
sS'4347'
p5273
I4345
sS'4346'
p5274
I4344
sS'4345'
p5275
I4343
sS'4344'
p5276
I4342
sS'4343'
p5277
I4341
sS'4342'
p5278
I4340
sS'4341'
p5279
I4339
sS'4340'
p5280
I4338
sS'5719'
p5281
I5717
sS'5718'
p5282
I5716
sS'5717'
p5283
I5715
sS'5716'
p5284
I5714
sS'5715'
p5285
I5713
sS'5714'
p5286
I5712
sS'5713'
p5287
I5711
sS'5712'
p5288
I5710
sS'5711'
p5289
I5709
sS'5710'
p5290
I5708
sS'3575'
p5291
I3573
sS'5091'
p5292
I5089
sS'3577'
p5293
I3575
sS'3576'
p5294
I3574
sS'3571'
p5295
I3569
sS'3570'
p5296
I3568
sS'3573'
p5297
I3571
sS'3572'
p5298
I3570
sS'2666'
p5299
I2664
sS'2667'
p5300
I2665
sS'2664'
p5301
I2662
sS'2665'
p5302
I2663
sS'2662'
p5303
I2660
sS'2663'
p5304
I2661
sS'2660'
p5305
I2658
sS'2661'
p5306
I2659
sS'1829'
p5307
I1827
sS'1828'
p5308
I1826
sS'1825'
p5309
I1823
sS'1824'
p5310
I1822
sS'1827'
p5311
I1825
sS'1826'
p5312
I1824
sS'1821'
p5313
I1819
sS'1820'
p5314
I1818
sS'1823'
p5315
I1821
sS'1822'
p5316
I1820
sS'2147'
p5317
I2145
sS'2146'
p5318
I2144
sS'2413'
p5319
I2411
sS'2412'
p5320
I2410
sS'4978'
p5321
I4976
sS'4979'
p5322
I4977
sS'2417'
p5323
I2415
sS'2140'
p5324
I2138
sS'4974'
p5325
I4972
sS'4975'
p5326
I4973
sS'4976'
p5327
I4974
sS'4977'
p5328
I4975
sS'4970'
p5329
I4968
sS'4971'
p5330
I4969
sS'4972'
p5331
I4970
sS'2148'
p5332
I2146
sS'1920'
p5333
I1918
sS'1921'
p5334
I1919
sS'3274'
p5335
I3272
sS'3275'
p5336
I3273
sS'3272'
p5337
I3270
sS'1925'
p5338
I1923
sS'3270'
p5339
I3268
sS'3271'
p5340
I3269
sS'1928'
p5341
I1926
sS'1929'
p5342
I1927
sS'3278'
p5343
I3276
sS'3279'
p5344
I3277
sS'5586'
p5345
I5584
sS'5587'
p5346
I5585
sS'5584'
p5347
I5582
sS'3319'
p5348
I3317
sS'3318'
p5349
I3316
sS'5585'
p5350
I5583
sS'5489'
p5351
I5487
sS'5488'
p5352
I5486
sS'3311'
p5353
I3309
sS'3310'
p5354
I3308
sS'3313'
p5355
I3311
sS'3312'
p5356
I3310
sS'3315'
p5357
I3313
sS'3314'
p5358
I3312
sS'3317'
p5359
I3315
sS'3316'
p5360
I3314
sS'5580'
p5361
I5578
sS'5581'
p5362
I5579
sS'60'
p5363
I59
sS'61'
p5364
I60
sS'62'
p5365
I61
sS'63'
p5366
I62
sS'64'
p5367
I63
sS'65'
p5368
I64
sS'66'
p5369
I65
sS'67'
p5370
I66
sS'68'
p5371
I67
sS'69'
p5372
I68
sS'508'
p5373
I506
sS'509'
p5374
I507
sS'506'
p5375
I504
sS'507'
p5376
I505
sS'504'
p5377
I502
sS'505'
p5378
I503
sS'502'
p5379
I500
sS'503'
p5380
I501
sS'500'
p5381
I498
sS'501'
p5382
I499
sS'1212'
p5383
I1210
sS'1213'
p5384
I1211
sS'1210'
p5385
I1208
sS'633'
p5386
I631
sS'1216'
p5387
I1214
sS'1217'
p5388
I1215
sS'636'
p5389
I634
sS'637'
p5390
I635
sS'638'
p5391
I636
sS'639'
p5392
I637
sS'1218'
p5393
I1216
sS'1219'
p5394
I1217
sS'3869'
p5395
I3867
sS'3868'
p5396
I3866
sS'3863'
p5397
I3861
sS'3862'
p5398
I3860
sS'3861'
p5399
I3859
sS'3860'
p5400
I3858
sS'3867'
p5401
I3865
sS'3866'
p5402
I3864
sS'3865'
p5403
I3863
sS'3864'
p5404
I3862
sS'4152'
p5405
I4150
sS'4153'
p5406
I4151
sS'4150'
p5407
I4148
sS'4151'
p5408
I4149
sS'4156'
p5409
I4154
sS'4157'
p5410
I4155
sS'4154'
p5411
I4152
sS'4155'
p5412
I4153
sS'4158'
p5413
I4156
sS'4159'
p5414
I4157
sS'5902'
p5415
I5900
sS'5903'
p5416
I5901
sS'5900'
p5417
I5898
sS'5901'
p5418
I5899
sS'5906'
p5419
I5904
sS'5907'
p5420
I5905
sS'5904'
p5421
I5902
sS'5905'
p5422
I5903
sS'5908'
p5423
I5906
sS'5909'
p5424
I5907
sS'3489'
p5425
I3487
sS'3488'
p5426
I3486
sS'3481'
p5427
I3479
sS'3480'
p5428
I3478
sS'3483'
p5429
I3481
sS'3482'
p5430
I3480
sS'3485'
p5431
I3483
sS'3484'
p5432
I3482
sS'3487'
p5433
I3485
sS'3486'
p5434
I3484
sS'4563'
p5435
I4561
sS'4562'
p5436
I4560
sS'4561'
p5437
I4559
sS'4560'
p5438
I4558
sS'4567'
p5439
I4565
sS'4566'
p5440
I4564
sS'4565'
p5441
I4563
sS'4564'
p5442
I4562
sS'4569'
p5443
I4567
sS'4568'
p5444
I4566
sS'6064'
p5445
I6062
sS'6065'
p5446
I6063
sS'6066'
p5447
I6064
sS'6067'
p5448
I6065
sS'6060'
p5449
I6058
sS'6061'
p5450
I6059
sS'6062'
p5451
I6060
sS'6063'
p5452
I6061
sS'6068'
p5453
I6066
sS'6069'
p5454
I6067
sS'2604'
p5455
I2602
sS'2605'
p5456
I2603
sS'2606'
p5457
I2604
sS'2607'
p5458
I2605
sS'2600'
p5459
I2598
sS'2601'
p5460
I2599
sS'2602'
p5461
I2600
sS'2603'
p5462
I2601
sS'2608'
p5463
I2606
sS'2609'
p5464
I2607
sS'5453'
p5465
I5451
sS'732'
p5466
I730
sS'5454'
p5467
I5452
sS'753'
p5468
I751
sS'1807'
p5469
I1805
sS'751'
p5470
I749
sS'750'
p5471
I748
sS'757'
p5472
I755
sS'756'
p5473
I754
sS'755'
p5474
I753
sS'754'
p5475
I752
sS'759'
p5476
I757
sS'758'
p5477
I756
sS'3780'
p5478
I3778
sS'1804'
p5479
I1802
sS'2958'
p5480
I2956
sS'2959'
p5481
I2957
sS'738'
p5482
I736
sS'2954'
p5483
I2952
sS'3786'
p5484
I3784
sS'2956'
p5485
I2954
sS'2957'
p5486
I2955
sS'2950'
p5487
I2948
sS'2951'
p5488
I2949
sS'2952'
p5489
I2950
sS'1802'
p5490
I1800
sS'5344'
p5491
I5342
sS'1024'
p5492
I1022
sS'1027'
p5493
I1025
sS'5347'
p5494
I5345
sS'5340'
p5495
I5338
sS'1801'
p5496
I1799
sS'5342'
p5497
I5340
sS'1022'
p5498
I1020
sS'3785'
p5499
I3783
sS'1029'
p5500
I1027
sS'1028'
p5501
I1026
sS'5456'
p5502
I5454
sS'4365'
p5503
I4363
sS'4364'
p5504
I4362
sS'4367'
p5505
I4365
sS'4366'
p5506
I4364
sS'4361'
p5507
I4359
sS'4360'
p5508
I4358
sS'4363'
p5509
I4361
sS'4362'
p5510
I4360
sS'4369'
p5511
I4367
sS'4368'
p5512
I4366
sS'5457'
p5513
I5455
sS'3108'
p5514
I3106
sS'3109'
p5515
I3107
sS'3104'
p5516
I3102
sS'3105'
p5517
I3103
sS'3106'
p5518
I3104
sS'3107'
p5519
I3105
sS'3100'
p5520
I3098
sS'3101'
p5521
I3099
sS'3102'
p5522
I3100
sS'3103'
p5523
I3101
sS'5'
p5524
I4
sS'4093'
p5525
I4091
sS'4092'
p5526
I4090
sS'4091'
p5527
I4089
sS'4090'
p5528
I4088
sS'4097'
p5529
I4095
sS'4096'
p5530
I4094
sS'4095'
p5531
I4093
sS'4094'
p5532
I4092
sS'4099'
p5533
I4097
sS'4098'
p5534
I4096
sS'5735'
p5535
I5733
sS'5734'
p5536
I5732
sS'5737'
p5537
I5735
sS'5736'
p5538
I5734
sS'5731'
p5539
I5729
sS'5730'
p5540
I5728
sS'5733'
p5541
I5731
sS'5732'
p5542
I5730
sS'5739'
p5543
I5737
sS'5738'
p5544
I5736
sS'5238'
p5545
I5236
sS'2381'
p5546
I2379
sS'2380'
p5547
I2378
sS'2383'
p5548
I2381
sS'2382'
p5549
I2380
sS'2385'
p5550
I2383
sS'2384'
p5551
I2382
sS'2387'
p5552
I2385
sS'2386'
p5553
I2384
sS'2389'
p5554
I2387
sS'2388'
p5555
I2386
sS'1849'
p5556
I1847
sS'1848'
p5557
I1846
sS'1843'
p5558
I1841
sS'1842'
p5559
I1840
sS'1841'
p5560
I1839
sS'1840'
p5561
I1838
sS'1847'
p5562
I1845
sS'1846'
p5563
I1844
sS'1845'
p5564
I1843
sS'1844'
p5565
I1842
sS'3250'
p5566
I3248
sS'4958'
p5567
I4956
sS'4959'
p5568
I4957
sS'2169'
p5569
I2167
sS'2168'
p5570
I2166
sS'3251'
p5571
I3249
sS'4952'
p5572
I4950
sS'4953'
p5573
I4951
sS'4950'
p5574
I4948
sS'4951'
p5575
I4949
sS'2161'
p5576
I2159
sS'4957'
p5577
I4955
sS'4954'
p5578
I4952
sS'4955'
p5579
I4953
sS'3253'
p5580
I3251
sS'2129'
p5581
I2127
sS'3254'
p5582
I3252
sS'3255'
p5583
I3253
sS'3298'
p5584
I3296
sS'3299'
p5585
I3297
sS'5139'
p5586
I5137
sS'5138'
p5587
I5136
sS'5137'
p5588
I5135
sS'3295'
p5589
I3293
sS'5135'
p5590
I5133
sS'3297'
p5591
I3295
sS'3290'
p5592
I3288
sS'5132'
p5593
I5130
sS'3292'
p5594
I3290
sS'5130'
p5595
I5128
sS'1735'
p5596
I1733
sS'1278'
p5597
I1276
sS'1279'
p5598
I1277
sS'618'
p5599
I616
sS'619'
p5600
I617
sS'1270'
p5601
I1268
sS'1271'
p5602
I1269
sS'1272'
p5603
I1270
sS'611'
p5604
I609
sS'616'
p5605
I614
sS'617'
p5606
I615
sS'1276'
p5607
I1274
sS'1277'
p5608
I1275
sS'1490'
p5609
I1488
sS'3332'
p5610
I3330
sS'1492'
p5611
I1490
sS'1493'
p5612
I1491
sS'3337'
p5613
I3335
sS'3336'
p5614
I3334
sS'3335'
p5615
I3333
sS'3334'
p5616
I3332
sS'5469'
p5617
I5467
sS'5468'
p5618
I5466
sS'3595'
p5619
I3593
sS'5039'
p5620
I5037
sS'3599'
p5621
I3597
sS'3598'
p5622
I3596
sS'4138'
p5623
I4136
sS'4139'
p5624
I4137
sS'4130'
p5625
I4128
sS'4131'
p5626
I4129
sS'4132'
p5627
I4130
sS'4133'
p5628
I4131
sS'4134'
p5629
I4132
sS'4135'
p5630
I4133
sS'4136'
p5631
I4134
sS'4137'
p5632
I4135
sS'3841'
p5633
I3839
sS'3840'
p5634
I3838
sS'3843'
p5635
I3841
sS'3842'
p5636
I3840
sS'3845'
p5637
I3843
sS'3844'
p5638
I3842
sS'3847'
p5639
I3845
sS'3846'
p5640
I3844
sS'3849'
p5641
I3847
sS'3848'
p5642
I3846
sS'5698'
p5643
I5696
sS'5699'
p5644
I5697
sS'5968'
p5645
I5966
sS'5969'
p5646
I5967
sS'5960'
p5647
I5958
sS'5961'
p5648
I5959
sS'5962'
p5649
I5960
sS'5963'
p5650
I5961
sS'5964'
p5651
I5962
sS'5965'
p5652
I5963
sS'5966'
p5653
I5964
sS'5967'
p5654
I5965
sS'4549'
p5655
I4547
sS'4548'
p5656
I4546
sS'4541'
p5657
I4539
sS'4540'
p5658
I4538
sS'4543'
p5659
I4541
sS'4542'
p5660
I4540
sS'4545'
p5661
I4543
sS'4544'
p5662
I4542
sS'4547'
p5663
I4545
sS'4546'
p5664
I4544
sS'1073'
p5665
I1071
sS'2594'
p5666
I2592
sS'2595'
p5667
I2593
sS'2596'
p5668
I2594
sS'2597'
p5669
I2595
sS'2590'
p5670
I2588
sS'2591'
p5671
I2589
sS'2592'
p5672
I2590
sS'2593'
p5673
I2591
sS'2598'
p5674
I2596
sS'2599'
p5675
I2597
sS'1070'
p5676
I1068
sS'6042'
p5677
I6040
sS'6043'
p5678
I6041
sS'6040'
p5679
I6038
sS'6041'
p5680
I6039
sS'6046'
p5681
I6044
sS'6047'
p5682
I6045
sS'6044'
p5683
I6042
sS'6045'
p5684
I6043
sS'5372'
p5685
I5370
sS'6048'
p5686
I6046
sS'6049'
p5687
I6047
sS'2622'
p5688
I2620
sS'2623'
p5689
I2621
sS'2620'
p5690
I2618
sS'2621'
p5691
I2619
sS'2626'
p5692
I2624
sS'2627'
p5693
I2625
sS'2624'
p5694
I2622
sS'2625'
p5695
I2623
sS'2628'
p5696
I2626
sS'2629'
p5697
I2627
sS'775'
p5698
I773
sS'774'
p5699
I772
sS'777'
p5700
I775
sS'776'
p5701
I774
sS'771'
p5702
I769
sS'770'
p5703
I768
sS'773'
p5704
I771
sS'772'
p5705
I770
sS'779'
p5706
I777
sS'778'
p5707
I776
sS'77'
p5708
I76
sS'76'
p5709
I75
sS'75'
p5710
I74
sS'74'
p5711
I73
sS'73'
p5712
I72
sS'72'
p5713
I71
sS'71'
p5714
I70
sS'70'
p5715
I69
sS'2972'
p5716
I2970
sS'2973'
p5717
I2971
sS'2970'
p5718
I2968
sS'2971'
p5719
I2969
sS'2976'
p5720
I2974
sS'2977'
p5721
I2975
sS'79'
p5722
I78
sS'78'
p5723
I77
sS'5362'
p5724
I5360
sS'5363'
p5725
I5361
sS'1041'
p5726
I1039
sS'5361'
p5727
I5359
sS'1047'
p5728
I1045
sS'1046'
p5729
I1044
sS'1045'
p5730
I1043
sS'1044'
p5731
I1042
sS'1049'
p5732
I1047
sS'1048'
p5733
I1046
sS'4303'
p5734
I4301
sS'4302'
p5735
I4300
sS'4301'
p5736
I4299
sS'4300'
p5737
I4298
sS'4307'
p5738
I4305
sS'4306'
p5739
I4304
sS'4305'
p5740
I4303
sS'4304'
p5741
I4302
sS'4309'
p5742
I4307
sS'4308'
p5743
I4306
sS'3128'
p5744
I3126
sS'3129'
p5745
I3127
sS'3122'
p5746
I3120
sS'3123'
p5747
I3121
sS'3120'
p5748
I3118
sS'3121'
p5749
I3119
sS'3126'
p5750
I3124
sS'3127'
p5751
I3125
sS'3124'
p5752
I3122
sS'3125'
p5753
I3123
sS'5753'
p5754
I5751
sS'5752'
p5755
I5750
sS'5751'
p5756
I5749
sS'5750'
p5757
I5748
sS'5757'
p5758
I5755
sS'5756'
p5759
I5754
sS'5755'
p5760
I5753
sS'5754'
p5761
I5752
sS'5759'
p5762
I5757
sS'5758'
p5763
I5756
sS'3445'
p5764
I3443
sS'4609'
p5765
I4607
sS'3444'
p5766
I3442
sS'3447'
p5767
I3445
sS'862'
p5768
I860
sS'865'
p5769
I863
sS'864'
p5770
I862
sS'3443'
p5771
I3441
sS'3442'
p5772
I3440
sS'2756'
p5773
I2754
sS'2757'
p5774
I2755
sS'2754'
p5775
I2752
sS'2755'
p5776
I2753
sS'2752'
p5777
I2750
sS'2753'
p5778
I2751
sS'2323'
p5779
I2321
sS'2750'
p5780
I2748
sS'2322'
p5781
I2320
sS'2023'
p5782
I2021
sS'4604'
p5783
I4602
sS'2321'
p5784
I2319
sS'2320'
p5785
I2318
sS'2327'
p5786
I2325
sS'2326'
p5787
I2324
sS'4701'
p5788
I4699
sS'2324'
p5789
I2322
sS'5194'
p5790
I5192
sS'5197'
p5791
I5195
sS'5196'
p5792
I5194
sS'2369'
p5793
I2367
sS'2368'
p5794
I2366
sS'2367'
p5795
I2365
sS'2366'
p5796
I2364
sS'2365'
p5797
I2363
sS'2364'
p5798
I2362
sS'2363'
p5799
I2361
sS'2362'
p5800
I2360
sS'2361'
p5801
I2359
sS'2360'
p5802
I2358
sS'5191'
p5803
I5189
sS'1861'
p5804
I1859
sS'1860'
p5805
I1858
sS'1863'
p5806
I1861
sS'1862'
p5807
I1860
sS'1865'
p5808
I1863
sS'3729'
p5809
I3727
sS'1867'
p5810
I1865
sS'1866'
p5811
I1864
sS'3724'
p5812
I3722
sS'3725'
p5813
I3723
sS'3726'
p5814
I3724
sS'3727'
p5815
I3725
sS'3720'
p5816
I3718
sS'3721'
p5817
I3719
sS'3722'
p5818
I3720
sS'3723'
p5819
I3721
sS'4686'
p5820
I4684
sS'4687'
p5821
I4685
sS'4684'
p5822
I4682
sS'4685'
p5823
I4683
sS'4682'
p5824
I4680
sS'4683'
p5825
I4681
sS'4680'
p5826
I4678
sS'4937'
p5827
I4935
sS'4938'
p5828
I4936
sS'4939'
p5829
I4937
sS'4688'
p5830
I4686
sS'4689'
p5831
I4687
sS'2109'
p5832
I2107
sS'2108'
p5833
I2106
sS'2103'
p5834
I2101
sS'2102'
p5835
I2100
sS'2101'
p5836
I2099
sS'2100'
p5837
I2098
sS'2107'
p5838
I2105
sS'2106'
p5839
I2104
sS'2105'
p5840
I2103
sS'2104'
p5841
I2102
sS'5115'
p5842
I5113
sS'5114'
p5843
I5112
sS'5117'
p5844
I5115
sS'5116'
p5845
I5114
sS'5111'
p5846
I5109
sS'5110'
p5847
I5108
sS'5113'
p5848
I5111
sS'5112'
p5849
I5110
sS'5119'
p5850
I5117
sS'5118'
p5851
I5116
sS'1717'
p5852
I1715
sS'5192'
p5853
I5190
sS'9'
p5854
I8
sS'890'
p5855
I888
sS'891'
p5856
I889
sS'892'
p5857
I890
sS'893'
p5858
I891
sS'894'
p5859
I892
sS'895'
p5860
I893
sS'896'
p5861
I894
sS'897'
p5862
I895
sS'898'
p5863
I896
sS'899'
p5864
I897
sS'1788'
p5865
I1786
sS'1789'
p5866
I1787
sS'1780'
p5867
I1778
sS'1781'
p5868
I1779
sS'1782'
p5869
I1780
sS'1783'
p5870
I1781
sS'1784'
p5871
I1782
sS'1785'
p5872
I1783
sS'1786'
p5873
I1784
sS'1787'
p5874
I1785
sS'678'
p5875
I676
sS'679'
p5876
I677
sS'674'
p5877
I672
sS'675'
p5878
I673
sS'676'
p5879
I674
sS'677'
p5880
I675
sS'670'
p5881
I668
sS'671'
p5882
I669
sS'672'
p5883
I670
sS'673'
p5884
I671
sS'2491'
p5885
I2489
sS'2490'
p5886
I2488
sS'2493'
p5887
I2491
sS'2492'
p5888
I2490
sS'2495'
p5889
I2493
sS'2494'
p5890
I2492
sS'2497'
p5891
I2495
sS'2496'
p5892
I2494
sS'1524'
p5893
I1522
sS'1525'
p5894
I1523
sS'1526'
p5895
I1524
sS'1527'
p5896
I1525
sS'1252'
p5897
I1250
sS'1521'
p5898
I1519
sS'1522'
p5899
I1520
sS'1523'
p5900
I1521
sS'1528'
p5901
I1526
sS'1529'
p5902
I1527
sS'1258'
p5903
I1256
sS'1259'
p5904
I1257
sS'4116'
p5905
I4114
sS'4117'
p5906
I4115
sS'4114'
p5907
I4112
sS'4115'
p5908
I4113
sS'4112'
p5909
I4110
sS'4113'
p5910
I4111
sS'4110'
p5911
I4108
sS'4111'
p5912
I4109
sS'4118'
p5913
I4116
sS'4119'
p5914
I4117
sS'3343'
p5915
I3341
sS'3340'
p5916
I3338
sS'3341'
p5917
I3339
sS'5946'
p5918
I5944
sS'5947'
p5919
I5945
sS'5944'
p5920
I5942
sS'5945'
p5921
I5943
sS'1966'
p5922
I1964
sS'5943'
p5923
I5941
sS'5940'
p5924
I5938
sS'5941'
p5925
I5939
sS'5948'
p5926
I5946
sS'5949'
p5927
I5947
sS'6028'
p5928
I6026
sS'6029'
p5929
I6027
sS'6020'
p5930
I6018
sS'6021'
p5931
I6019
sS'6022'
p5932
I6020
sS'6023'
p5933
I6021
sS'6024'
p5934
I6022
sS'6025'
p5935
I6023
sS'6026'
p5936
I6024
sS'6027'
p5937
I6025
sS'2648'
p5938
I2646
sS'2649'
p5939
I2647
sS'2640'
p5940
I2638
sS'2641'
p5941
I2639
sS'2642'
p5942
I2640
sS'2643'
p5943
I2641
sS'2644'
p5944
I2642
sS'2645'
p5945
I2643
sS'2646'
p5946
I2644
sS'2647'
p5947
I2645
sS'3557'
p5948
I3555
sS'3556'
p5949
I3554
sS'3555'
p5950
I3553
sS'3554'
p5951
I3552
sS'3553'
p5952
I3551
sS'3552'
p5953
I3550
sS'3551'
p5954
I3549
sS'3550'
p5955
I3548
sS'3559'
p5956
I3557
sS'3558'
p5957
I3556
sS'2910'
p5958
I2908
sS'2911'
p5959
I2909
sS'2912'
p5960
I2910
sS'2913'
p5961
I2911
sS'2914'
p5962
I2912
sS'2915'
p5963
I2913
sS'719'
p5964
I717
sS'2917'
p5965
I2915
sS'2918'
p5966
I2916
sS'2919'
p5967
I2917
sS'715'
p5968
I713
sS'714'
p5969
I712
sS'713'
p5970
I711
sS'712'
p5971
I710
sS'711'
p5972
I709
sS'710'
p5973
I708
sS'5308'
p5974
I5306
sS'5309'
p5975
I5307
sS'5300'
p5976
I5298
sS'5301'
p5977
I5299
sS'5302'
p5978
I5300
sS'5303'
p5979
I5301
sS'5304'
p5980
I5302
sS'5305'
p5981
I5303
sS'5306'
p5982
I5304
sS'5307'
p5983
I5305
sS'4329'
p5984
I4327
sS'4328'
p5985
I4326
sS'4321'
p5986
I4319
sS'4320'
p5987
I4318
sS'4323'
p5988
I4321
sS'4322'
p5989
I4320
sS'4325'
p5990
I4323
sS'4324'
p5991
I4322
sS'4327'
p5992
I4325
sS'4326'
p5993
I4324
sS'3140'
p5994
I3138
sS'3141'
p5995
I3139
sS'3142'
p5996
I3140
sS'3143'
p5997
I3141
sS'3144'
p5998
I3142
sS'3145'
p5999
I3143
sS'3146'
p6000
I3144
sS'3147'
p6001
I3145
sS'3148'
p6002
I3146
sS'3149'
p6003
I3147
sS'1630'
p6004
I1628
sS'5779'
p6005
I5777
sS'5778'
p6006
I5776
sS'5771'
p6007
I5769
sS'5770'
p6008
I5768
sS'5773'
p6009
I5771
sS'5772'
p6010
I5770
sS'5775'
p6011
I5773
sS'1631'
p6012
I1629
sS'5777'
p6013
I5775
sS'5776'
p6014
I5774
sS'1632'
p6015
I1630
sS'1633'
p6016
I1631
sS'1634'
p6017
I1632
sS'1635'
p6018
I1633
sS'3500'
p6019
I3498
sS'1636'
p6020
I1634
sS'3501'
p6021
I3499
sS'3502'
p6022
I3500
sS'3503'
p6023
I3501
sS'3504'
p6024
I3502
sS'3505'
p6025
I3503
sS'1637'
p6026
I1635
sS'3506'
p6027
I3504
sS'3507'
p6028
I3505
sS'2345'
p6029
I2343
sS'2344'
p6030
I2342
sS'2347'
p6031
I2345
sS'2346'
p6032
I2344
sS'2341'
p6033
I2339
sS'2340'
p6034
I2338
sS'2343'
p6035
I2341
sS'2342'
p6036
I2340
sS'2349'
p6037
I2347
sS'2348'
p6038
I2346
sS'2067'
p6039
I2065
sS'3708'
p6040
I3706
sS'3709'
p6041
I3707
sS'1889'
p6042
I1887
sS'1888'
p6043
I1886
sS'1887'
p6044
I1885
sS'1886'
p6045
I1884
sS'3700'
p6046
I3698
sS'1884'
p6047
I1882
sS'1883'
p6048
I1881
sS'1882'
p6049
I1880
sS'3704'
p6050
I3702
sS'3705'
p6051
I3703
sS'2121'
p6052
I2119
sS'2120'
p6053
I2118
sS'2123'
p6054
I2121
sS'2122'
p6055
I2120
sS'2125'
p6056
I2123
sS'2124'
p6057
I2122
sS'4918'
p6058
I4916
sS'4919'
p6059
I4917
sS'4916'
p6060
I4914
sS'4917'
p6061
I4915
sS'4914'
p6062
I4912
sS'4915'
p6063
I4913
sS'4912'
p6064
I4910
sS'4913'
p6065
I4911
sS'4910'
p6066
I4908
sS'4911'
p6067
I4909
sS'5173'
p6068
I5171
sS'5172'
p6069
I5170
sS'5171'
p6070
I5169
sS'5170'
p6071
I5168
sS'5177'
p6072
I5175
sS'5176'
p6073
I5174
sS'5175'
p6074
I5173
sS'5174'
p6075
I5172
sS'5179'
p6076
I5177
sS'5178'
p6077
I5176
sS'133'
p6078
I132
sS'132'
p6079
I131
sS'131'
p6080
I130
sS'130'
p6081
I129
sS'137'
p6082
I136
sS'136'
p6083
I135
sS'135'
p6084
I134
sS'134'
p6085
I133
sS'139'
p6086
I138
sS'138'
p6087
I137
sS'5339'
p6088
I5337
sS'88'
p6089
I87
sS'89'
p6090
I88
sS'82'
p6091
I81
sS'83'
p6092
I82
sS'80'
p6093
I79
sS'81'
p6094
I80
sS'86'
p6095
I85
sS'87'
p6096
I86
sS'84'
p6097
I83
sS'85'
p6098
I84
sS'3368'
p6099
I3366
sS'1502'
p6100
I1500
sS'1503'
p6101
I1501
sS'1500'
p6102
I1498
sS'1501'
p6103
I1499
sS'1506'
p6104
I1504
sS'1507'
p6105
I1505
sS'1504'
p6106
I1502
sS'1505'
p6107
I1503
sS'3085'
p6108
I3083
sS'3084'
p6109
I3082
sS'3087'
p6110
I3085
sS'3086'
p6111
I3084
sS'3081'
p6112
I3079
sS'3080'
p6113
I3078
sS'3083'
p6114
I3081
sS'659'
p6115
I657
sS'3369'
p6116
I3367
sS'3885'
p6117
I3883
sS'3884'
p6118
I3882
sS'3887'
p6119
I3885
sS'3886'
p6120
I3884
sS'3881'
p6121
I3879
sS'3880'
p6122
I3878
sS'3883'
p6123
I3881
sS'3882'
p6124
I3880
sS'3889'
p6125
I3887
sS'3888'
p6126
I3886
sS'2484'
p6127
I2482
sS'1291'
p6128
I1289
sS'1296'
p6129
I1294
sS'6006'
p6130
I6004
sS'6007'
p6131
I6005
sS'6004'
p6132
I6002
sS'6005'
p6133
I6003
sS'6002'
p6134
I6000
sS'6003'
p6135
I6001
sS'6000'
p6136
I5998
sS'6001'
p6137
I5999
sS'1297'
p6138
I1295
sS'6008'
p6139
I6006
sS'6009'
p6140
I6007
sS'995'
p6141
I993
sS'994'
p6142
I992
sS'997'
p6143
I995
sS'996'
p6144
I994
sS'991'
p6145
I989
sS'990'
p6146
I988
sS'993'
p6147
I991
sS'992'
p6148
I990
sS'999'
p6149
I997
sS'998'
p6150
I996
sS'5098'
p6151
I5096
sS'5099'
p6152
I5097
sS'3579'
p6153
I3577
sS'3578'
p6154
I3576
sS'5090'
p6155
I5088
sS'3574'
p6156
I3572
sS'5092'
p6157
I5090
sS'5093'
p6158
I5091
sS'5094'
p6159
I5092
sS'5095'
p6160
I5093
sS'5096'
p6161
I5094
sS'5097'
p6162
I5095
sS'4497'
p6163
I4495
sS'4496'
p6164
I4494
sS'4495'
p6165
I4493
sS'4494'
p6166
I4492
sS'4493'
p6167
I4491
sS'4492'
p6168
I4490
sS'4491'
p6169
I4489
sS'4490'
p6170
I4488
sS'4499'
p6171
I4497
sS'2669'
p6172
I2667
sS'2938'
p6173
I2936
sS'2939'
p6174
I2937
sS'2936'
p6175
I2934
sS'2937'
p6176
I2935
sS'2934'
p6177
I2932
sS'2935'
p6178
I2933
sS'2932'
p6179
I2930
sS'2933'
p6180
I2931
sS'2930'
p6181
I2928
sS'2931'
p6182
I2929
sS'5326'
p6183
I5324
sS'5327'
p6184
I5325
sS'5324'
p6185
I5322
sS'5325'
p6186
I5323
sS'5322'
p6187
I5320
sS'5323'
p6188
I5321
sS'5320'
p6189
I5318
sS'5321'
p6190
I5319
sS'3799'
p6191
I3797
sS'5328'
p6192
I5326
sS'5329'
p6193
I5327
sS'3797'
p6194
I3795
sS'1839'
p6195
I1837
sS'3168'
p6196
I3166
sS'3169'
p6197
I3167
sS'3166'
p6198
I3164
sS'3167'
p6199
I3165
sS'3164'
p6200
I3162
sS'3165'
p6201
I3163
sS'3162'
p6202
I3160
sS'3163'
p6203
I3161
sS'3160'
p6204
I3158
sS'3161'
p6205
I3159
sS'2154'
p6206
I2152
sS'2155'
p6207
I2153
sS'2404'
p6208
I2402
sS'731'
p6209
I729
sS'730'
p6210
I728
sS'733'
p6211
I731
sS'2405'
p6212
I2403
sS'735'
p6213
I733
sS'734'
p6214
I732
sS'737'
p6215
I735
sS'736'
p6216
I734
sS'739'
p6217
I737
sS'2402'
p6218
I2400
sS'2151'
p6219
I2149
sS'4987'
p6220
I4985
sS'2401'
p6221
I2399
sS'2006'
p6222
I2004
sS'1274'
p6223
I1272
sS'4707'
p6224
I4705
sS'4706'
p6225
I4704
sS'4705'
p6226
I4703
sS'4704'
p6227
I4702
sS'4703'
p6228
I4701
sS'4702'
p6229
I4700
sS'2325'
p6230
I2323
sS'4700'
p6231
I4698
sS'2329'
p6232
I2327
sS'2328'
p6233
I2326
sS'4709'
p6234
I4707
sS'4708'
p6235
I4706
sS'3760'
p6236
I3758
sS'3761'
p6237
I3759
sS'3762'
p6238
I3760
sS'3763'
p6239
I3761
sS'3764'
p6240
I3762
sS'3765'
p6241
I3763
sS'3766'
p6242
I3764
sS'3767'
p6243
I3765
sS'3768'
p6244
I3766
sS'3769'
p6245
I3767
sS'1292'
p6246
I1290
sS'1792'
p6247
I1790
sS'1293'
p6248
I1291
sS'1290'
p6249
I1288
sS'2499'
p6250
I2497
sS'2498'
p6251
I2496
sS'4648'
p6252
I4646
sS'4649'
p6253
I4647
sS'4642'
p6254
I4640
sS'4643'
p6255
I4641
sS'4640'
p6256
I4638
sS'4641'
p6257
I4639
sS'4646'
p6258
I4644
sS'4647'
p6259
I4645
sS'4644'
p6260
I4642
sS'4645'
p6261
I4643
sS'1294'
p6262
I1292
sS'1295'
p6263
I1293
sS'5159'
p6264
I5157
sS'5158'
p6265
I5156
sS'5151'
p6266
I5149
sS'5150'
p6267
I5148
sS'5153'
p6268
I5151
sS'5152'
p6269
I5150
sS'5155'
p6270
I5153
sS'5154'
p6271
I5152
sS'5157'
p6272
I5155
sS'5156'
p6273
I5154
sS'115'
p6274
I114
sS'114'
p6275
I113
sS'117'
p6276
I116
sS'116'
p6277
I115
sS'111'
p6278
I110
sS'110'
p6279
I109
sS'113'
p6280
I112
sS'112'
p6281
I111
sS'3244'
p6282
I3242
sS'119'
p6283
I118
sS'118'
p6284
I117
sS'1748'
p6285
I1746
sS'1749'
p6286
I1747
sS'1744'
p6287
I1742
sS'1745'
p6288
I1743
sS'1746'
p6289
I1744
sS'1747'
p6290
I1745
sS'1740'
p6291
I1738
sS'1741'
p6292
I1739
sS'1742'
p6293
I1740
sS'1743'
p6294
I1741
sS'3308'
p6295
I3306
sS'3309'
p6296
I3307
sS'5494'
p6297
I5492
sS'5495'
p6298
I5493
sS'3304'
p6299
I3302
sS'3305'
p6300
I3303
sS'5490'
p6301
I5488
sS'5491'
p6302
I5489
sS'1568'
p6303
I1566
sS'1569'
p6304
I1567
sS'1298'
p6305
I1296
sS'1299'
p6306
I1297
sS'5492'
p6307
I5490
sS'1560'
p6308
I1558
sS'1561'
p6309
I1559
sS'1562'
p6310
I1560
sS'1563'
p6311
I1561
sS'1564'
p6312
I1562
sS'1565'
p6313
I1563
sS'1566'
p6314
I1564
sS'1567'
p6315
I1565
sS'5638'
p6316
I5636
sS'5639'
p6317
I5637
sS'5634'
p6318
I5632
sS'5635'
p6319
I5633
sS'5636'
p6320
I5634
sS'5637'
p6321
I5635
sS'5630'
p6322
I5628
sS'5631'
p6323
I5629
sS'5632'
p6324
I5630
sS'5633'
p6325
I5631
s.